
power_management.elf:     file format elf32-littlearm

Sections:
Idx Name          Size      VMA       LMA       File off  Algn
  0 .isr_vector   0000010c  08000000  08000000  00001000  2**0
                  CONTENTS, ALLOC, LOAD, READONLY, DATA
  1 .text         000055ec  08000110  08000110  00001110  2**4
                  CONTENTS, ALLOC, LOAD, READONLY, CODE
  2 .rodata       000000c8  080056fc  080056fc  000066fc  2**2
                  CONTENTS, ALLOC, LOAD, READONLY, DATA
  3 .ARM.extab    00000000  080057c4  080057c4  0000701c  2**0
                  CONTENTS, READONLY
  4 .ARM          00000000  080057c4  080057c4  0000701c  2**0
                  CONTENTS, READONLY
  5 .preinit_array 00000000  080057c4  080057c4  0000701c  2**0
                  CONTENTS, ALLOC, LOAD, DATA
  6 .init_array   00000004  080057c4  080057c4  000067c4  2**2
                  CONTENTS, ALLOC, LOAD, READONLY, DATA
  7 .fini_array   00000004  080057c8  080057c8  000067c8  2**2
                  CONTENTS, ALLOC, LOAD, READONLY, DATA
  8 .data         0000001c  20000000  080057cc  00007000  2**2
                  CONTENTS, ALLOC, LOAD, DATA
  9 .bss          00003110  20000020  080057e8  00007020  2**3
                  ALLOC
 10 ._user_heap_stack 00000600  20003130  080057e8  00007130  2**0
                  ALLOC
 11 .ARM.attributes 00000029  00000000  00000000  0000701c  2**0
                  CONTENTS, READONLY
 12 .comment      00000043  00000000  00000000  00007045  2**0
                  CONTENTS, READONLY
 13 .debug_frame  000001bc  00000000  00000000  00007088  2**2
                  CONTENTS, READONLY, DEBUGGING, OCTETS

Disassembly of section .text:

08000110 <__do_global_dtors_aux>:
 8000110:	b510      	push	{r4, lr}
 8000112:	4c05      	ldr	r4, [pc, #20]	@ (8000128 <__do_global_dtors_aux+0x18>)
 8000114:	7823      	ldrb	r3, [r4, #0]
 8000116:	b933      	cbnz	r3, 8000126 <__do_global_dtors_aux+0x16>
 8000118:	4b04      	ldr	r3, [pc, #16]	@ (800012c <__do_global_dtors_aux+0x1c>)
 800011a:	b113      	cbz	r3, 8000122 <__do_global_dtors_aux+0x12>
 800011c:	4804      	ldr	r0, [pc, #16]	@ (8000130 <__do_global_dtors_aux+0x20>)
 800011e:	f3af 8000 	nop.w
 8000122:	2301      	movs	r3, #1
 8000124:	7023      	strb	r3, [r4, #0]
 8000126:	bd10      	pop	{r4, pc}
 8000128:	20000020 	.word	0x20000020
 800012c:	00000000 	.word	0x00000000
 8000130:	080056e4 	.word	0x080056e4

08000134 <frame_dummy>:
 8000134:	b508      	push	{r3, lr}
 8000136:	4b03      	ldr	r3, [pc, #12]	@ (8000144 <frame_dummy+0x10>)
 8000138:	b11b      	cbz	r3, 8000142 <frame_dummy+0xe>
 800013a:	4903      	ldr	r1, [pc, #12]	@ (8000148 <frame_dummy+0x14>)
 800013c:	4803      	ldr	r0, [pc, #12]	@ (800014c <frame_dummy+0x18>)
 800013e:	f3af 8000 	nop.w
 8000142:	bd08      	pop	{r3, pc}
 8000144:	00000000 	.word	0x00000000
 8000148:	20000024 	.word	0x20000024
 800014c:	080056e4 	.word	0x080056e4

08000150 <__aeabi_frsub>:
 8000150:	f080 4000 	eor.w	r0, r0, #2147483648	@ 0x80000000
 8000154:	e002      	b.n	800015c <__addsf3>
 8000156:	bf00      	nop

08000158 <__aeabi_fsub>:
 8000158:	f081 4100 	eor.w	r1, r1, #2147483648	@ 0x80000000

0800015c <__addsf3>:
 800015c:	0042      	lsls	r2, r0, #1
 800015e:	bf1f      	itttt	ne
 8000160:	ea5f 0341 	movsne.w	r3, r1, lsl #1
 8000164:	ea92 0f03 	teqne	r2, r3
 8000168:	ea7f 6c22 	mvnsne.w	ip, r2, asr #24
 800016c:	ea7f 6c23 	mvnsne.w	ip, r3, asr #24
 8000170:	d06a      	beq.n	8000248 <__addsf3+0xec>
 8000172:	ea4f 6212 	mov.w	r2, r2, lsr #24
 8000176:	ebd2 6313 	rsbs	r3, r2, r3, lsr #24
 800017a:	bfc1      	itttt	gt
 800017c:	18d2      	addgt	r2, r2, r3
 800017e:	4041      	eorgt	r1, r0
 8000180:	4048      	eorgt	r0, r1
 8000182:	4041      	eorgt	r1, r0
 8000184:	bfb8      	it	lt
 8000186:	425b      	neglt	r3, r3
 8000188:	2b19      	cmp	r3, #25
 800018a:	bf88      	it	hi
 800018c:	4770      	bxhi	lr
 800018e:	f010 4f00 	tst.w	r0, #2147483648	@ 0x80000000
 8000192:	f440 0000 	orr.w	r0, r0, #8388608	@ 0x800000
 8000196:	f020 407f 	bic.w	r0, r0, #4278190080	@ 0xff000000
 800019a:	bf18      	it	ne
 800019c:	4240      	negne	r0, r0
 800019e:	f011 4f00 	tst.w	r1, #2147483648	@ 0x80000000
 80001a2:	f441 0100 	orr.w	r1, r1, #8388608	@ 0x800000
 80001a6:	f021 417f 	bic.w	r1, r1, #4278190080	@ 0xff000000
 80001aa:	bf18      	it	ne
 80001ac:	4249      	negne	r1, r1
 80001ae:	ea92 0f03 	teq	r2, r3
 80001b2:	d03f      	beq.n	8000234 <__addsf3+0xd8>
 80001b4:	f1a2 0201 	sub.w	r2, r2, #1
 80001b8:	fa41 fc03 	asr.w	ip, r1, r3
 80001bc:	eb10 000c 	adds.w	r0, r0, ip
 80001c0:	f1c3 0320 	rsb	r3, r3, #32
 80001c4:	fa01 f103 	lsl.w	r1, r1, r3
 80001c8:	f000 4300 	and.w	r3, r0, #2147483648	@ 0x80000000
 80001cc:	d502      	bpl.n	80001d4 <__addsf3+0x78>
 80001ce:	4249      	negs	r1, r1
 80001d0:	eb60 0040 	sbc.w	r0, r0, r0, lsl #1
 80001d4:	f5b0 0f00 	cmp.w	r0, #8388608	@ 0x800000
 80001d8:	d313      	bcc.n	8000202 <__addsf3+0xa6>
 80001da:	f1b0 7f80 	cmp.w	r0, #16777216	@ 0x1000000
 80001de:	d306      	bcc.n	80001ee <__addsf3+0x92>
 80001e0:	0840      	lsrs	r0, r0, #1
 80001e2:	ea4f 0131 	mov.w	r1, r1, rrx
 80001e6:	f102 0201 	add.w	r2, r2, #1
 80001ea:	2afe      	cmp	r2, #254	@ 0xfe
 80001ec:	d251      	bcs.n	8000292 <__addsf3+0x136>
 80001ee:	f1b1 4f00 	cmp.w	r1, #2147483648	@ 0x80000000
 80001f2:	eb40 50c2 	adc.w	r0, r0, r2, lsl #23
 80001f6:	bf08      	it	eq
 80001f8:	f020 0001 	biceq.w	r0, r0, #1
 80001fc:	ea40 0003 	orr.w	r0, r0, r3
 8000200:	4770      	bx	lr
 8000202:	0049      	lsls	r1, r1, #1
 8000204:	eb40 0000 	adc.w	r0, r0, r0
 8000208:	3a01      	subs	r2, #1
 800020a:	bf28      	it	cs
 800020c:	f5b0 0f00 	cmpcs.w	r0, #8388608	@ 0x800000
 8000210:	d2ed      	bcs.n	80001ee <__addsf3+0x92>
 8000212:	fab0 fc80 	clz	ip, r0
 8000216:	f1ac 0c08 	sub.w	ip, ip, #8
 800021a:	ebb2 020c 	subs.w	r2, r2, ip
 800021e:	fa00 f00c 	lsl.w	r0, r0, ip
 8000222:	bfaa      	itet	ge
 8000224:	eb00 50c2 	addge.w	r0, r0, r2, lsl #23
 8000228:	4252      	neglt	r2, r2
 800022a:	4318      	orrge	r0, r3
 800022c:	bfbc      	itt	lt
 800022e:	40d0      	lsrlt	r0, r2
 8000230:	4318      	orrlt	r0, r3
 8000232:	4770      	bx	lr
 8000234:	f092 0f00 	teq	r2, #0
 8000238:	f481 0100 	eor.w	r1, r1, #8388608	@ 0x800000
 800023c:	bf06      	itte	eq
 800023e:	f480 0000 	eoreq.w	r0, r0, #8388608	@ 0x800000
 8000242:	3201      	addeq	r2, #1
 8000244:	3b01      	subne	r3, #1
 8000246:	e7b5      	b.n	80001b4 <__addsf3+0x58>
 8000248:	ea4f 0341 	mov.w	r3, r1, lsl #1
 800024c:	ea7f 6c22 	mvns.w	ip, r2, asr #24
 8000250:	bf18      	it	ne
 8000252:	ea7f 6c23 	mvnsne.w	ip, r3, asr #24
 8000256:	d021      	beq.n	800029c <__addsf3+0x140>
 8000258:	ea92 0f03 	teq	r2, r3
 800025c:	d004      	beq.n	8000268 <__addsf3+0x10c>
 800025e:	f092 0f00 	teq	r2, #0
 8000262:	bf08      	it	eq
 8000264:	4608      	moveq	r0, r1
 8000266:	4770      	bx	lr
 8000268:	ea90 0f01 	teq	r0, r1
 800026c:	bf1c      	itt	ne
 800026e:	2000      	movne	r0, #0
 8000270:	4770      	bxne	lr
 8000272:	f012 4f7f 	tst.w	r2, #4278190080	@ 0xff000000
 8000276:	d104      	bne.n	8000282 <__addsf3+0x126>
 8000278:	0040      	lsls	r0, r0, #1
 800027a:	bf28      	it	cs
 800027c:	f040 4000 	orrcs.w	r0, r0, #2147483648	@ 0x80000000
 8000280:	4770      	bx	lr
 8000282:	f112 7200 	adds.w	r2, r2, #33554432	@ 0x2000000
 8000286:	bf3c      	itt	cc
 8000288:	f500 0000 	addcc.w	r0, r0, #8388608	@ 0x800000
 800028c:	4770      	bxcc	lr
 800028e:	f000 4300 	and.w	r3, r0, #2147483648	@ 0x80000000
 8000292:	f043 40fe 	orr.w	r0, r3, #2130706432	@ 0x7f000000
 8000296:	f440 0000 	orr.w	r0, r0, #8388608	@ 0x800000
 800029a:	4770      	bx	lr
 800029c:	ea7f 6222 	mvns.w	r2, r2, asr #24
 80002a0:	bf16      	itet	ne
 80002a2:	4608      	movne	r0, r1
 80002a4:	ea7f 6323 	mvnseq.w	r3, r3, asr #24
 80002a8:	4601      	movne	r1, r0
 80002aa:	0242      	lsls	r2, r0, #9
 80002ac:	bf06      	itte	eq
 80002ae:	ea5f 2341 	movseq.w	r3, r1, lsl #9
 80002b2:	ea90 0f01 	teqeq	r0, r1
 80002b6:	f440 0080 	orrne.w	r0, r0, #4194304	@ 0x400000
 80002ba:	4770      	bx	lr

080002bc <__aeabi_ui2f>:
 80002bc:	f04f 0300 	mov.w	r3, #0
 80002c0:	e004      	b.n	80002cc <__aeabi_i2f+0x8>
 80002c2:	bf00      	nop

080002c4 <__aeabi_i2f>:
 80002c4:	f010 4300 	ands.w	r3, r0, #2147483648	@ 0x80000000
 80002c8:	bf48      	it	mi
 80002ca:	4240      	negmi	r0, r0
 80002cc:	ea5f 0c00 	movs.w	ip, r0
 80002d0:	bf08      	it	eq
 80002d2:	4770      	bxeq	lr
 80002d4:	f043 4396 	orr.w	r3, r3, #1258291200	@ 0x4b000000
 80002d8:	4601      	mov	r1, r0
 80002da:	f04f 0000 	mov.w	r0, #0
 80002de:	e01c      	b.n	800031a <__aeabi_l2f+0x2a>

080002e0 <__aeabi_ul2f>:
 80002e0:	ea50 0201 	orrs.w	r2, r0, r1
 80002e4:	bf08      	it	eq
 80002e6:	4770      	bxeq	lr
 80002e8:	f04f 0300 	mov.w	r3, #0
 80002ec:	e00a      	b.n	8000304 <__aeabi_l2f+0x14>
 80002ee:	bf00      	nop

080002f0 <__aeabi_l2f>:
 80002f0:	ea50 0201 	orrs.w	r2, r0, r1
 80002f4:	bf08      	it	eq
 80002f6:	4770      	bxeq	lr
 80002f8:	f011 4300 	ands.w	r3, r1, #2147483648	@ 0x80000000
 80002fc:	d502      	bpl.n	8000304 <__aeabi_l2f+0x14>
 80002fe:	4240      	negs	r0, r0
 8000300:	eb61 0141 	sbc.w	r1, r1, r1, lsl #1
 8000304:	ea5f 0c01 	movs.w	ip, r1
 8000308:	bf02      	ittt	eq
 800030a:	4684      	moveq	ip, r0
 800030c:	4601      	moveq	r1, r0
 800030e:	2000      	moveq	r0, #0
 8000310:	f043 43b6 	orr.w	r3, r3, #1526726656	@ 0x5b000000
 8000314:	bf08      	it	eq
 8000316:	f1a3 5380 	subeq.w	r3, r3, #268435456	@ 0x10000000
 800031a:	f5a3 0300 	sub.w	r3, r3, #8388608	@ 0x800000
 800031e:	fabc f28c 	clz	r2, ip
 8000322:	3a08      	subs	r2, #8
 8000324:	eba3 53c2 	sub.w	r3, r3, r2, lsl #23
 8000328:	db10      	blt.n	800034c <__aeabi_l2f+0x5c>
 800032a:	fa01 fc02 	lsl.w	ip, r1, r2
 800032e:	4463      	add	r3, ip
 8000330:	fa00 fc02 	lsl.w	ip, r0, r2
 8000334:	f1c2 0220 	rsb	r2, r2, #32
 8000338:	f1bc 4f00 	cmp.w	ip, #2147483648	@ 0x80000000
 800033c:	fa20 f202 	lsr.w	r2, r0, r2
 8000340:	eb43 0002 	adc.w	r0, r3, r2
 8000344:	bf08      	it	eq
 8000346:	f020 0001 	biceq.w	r0, r0, #1
 800034a:	4770      	bx	lr
 800034c:	f102 0220 	add.w	r2, r2, #32
 8000350:	fa01 fc02 	lsl.w	ip, r1, r2
 8000354:	f1c2 0220 	rsb	r2, r2, #32
 8000358:	ea50 004c 	orrs.w	r0, r0, ip, lsl #1
 800035c:	fa21 f202 	lsr.w	r2, r1, r2
 8000360:	eb43 0002 	adc.w	r0, r3, r2
 8000364:	bf08      	it	eq
 8000366:	ea20 70dc 	biceq.w	r0, r0, ip, lsr #31
 800036a:	4770      	bx	lr

0800036c <__aeabi_fmul>:
 800036c:	f04f 0cff 	mov.w	ip, #255	@ 0xff
 8000370:	ea1c 52d0 	ands.w	r2, ip, r0, lsr #23
 8000374:	bf1e      	ittt	ne
 8000376:	ea1c 53d1 	andsne.w	r3, ip, r1, lsr #23
 800037a:	ea92 0f0c 	teqne	r2, ip
 800037e:	ea93 0f0c 	teqne	r3, ip
 8000382:	d06f      	beq.n	8000464 <__aeabi_fmul+0xf8>
 8000384:	441a      	add	r2, r3
 8000386:	ea80 0c01 	eor.w	ip, r0, r1
 800038a:	0240      	lsls	r0, r0, #9
 800038c:	bf18      	it	ne
 800038e:	ea5f 2141 	movsne.w	r1, r1, lsl #9
 8000392:	d01e      	beq.n	80003d2 <__aeabi_fmul+0x66>
 8000394:	f04f 6300 	mov.w	r3, #134217728	@ 0x8000000
 8000398:	ea43 1050 	orr.w	r0, r3, r0, lsr #5
 800039c:	ea43 1151 	orr.w	r1, r3, r1, lsr #5
 80003a0:	fba0 3101 	umull	r3, r1, r0, r1
 80003a4:	f00c 4000 	and.w	r0, ip, #2147483648	@ 0x80000000
 80003a8:	f5b1 0f00 	cmp.w	r1, #8388608	@ 0x800000
 80003ac:	bf3e      	ittt	cc
 80003ae:	0049      	lslcc	r1, r1, #1
 80003b0:	ea41 71d3 	orrcc.w	r1, r1, r3, lsr #31
 80003b4:	005b      	lslcc	r3, r3, #1
 80003b6:	ea40 0001 	orr.w	r0, r0, r1
 80003ba:	f162 027f 	sbc.w	r2, r2, #127	@ 0x7f
 80003be:	2afd      	cmp	r2, #253	@ 0xfd
 80003c0:	d81d      	bhi.n	80003fe <__aeabi_fmul+0x92>
 80003c2:	f1b3 4f00 	cmp.w	r3, #2147483648	@ 0x80000000
 80003c6:	eb40 50c2 	adc.w	r0, r0, r2, lsl #23
 80003ca:	bf08      	it	eq
 80003cc:	f020 0001 	biceq.w	r0, r0, #1
 80003d0:	4770      	bx	lr
 80003d2:	f090 0f00 	teq	r0, #0
 80003d6:	f00c 4c00 	and.w	ip, ip, #2147483648	@ 0x80000000
 80003da:	bf08      	it	eq
 80003dc:	0249      	lsleq	r1, r1, #9
 80003de:	ea4c 2050 	orr.w	r0, ip, r0, lsr #9
 80003e2:	ea40 2051 	orr.w	r0, r0, r1, lsr #9
 80003e6:	3a7f      	subs	r2, #127	@ 0x7f
 80003e8:	bfc2      	ittt	gt
 80003ea:	f1d2 03ff 	rsbsgt	r3, r2, #255	@ 0xff
 80003ee:	ea40 50c2 	orrgt.w	r0, r0, r2, lsl #23
 80003f2:	4770      	bxgt	lr
 80003f4:	f440 0000 	orr.w	r0, r0, #8388608	@ 0x800000
 80003f8:	f04f 0300 	mov.w	r3, #0
 80003fc:	3a01      	subs	r2, #1
 80003fe:	dc5d      	bgt.n	80004bc <__aeabi_fmul+0x150>
 8000400:	f112 0f19 	cmn.w	r2, #25
 8000404:	bfdc      	itt	le
 8000406:	f000 4000 	andle.w	r0, r0, #2147483648	@ 0x80000000
 800040a:	4770      	bxle	lr
 800040c:	f1c2 0200 	rsb	r2, r2, #0
 8000410:	0041      	lsls	r1, r0, #1
 8000412:	fa21 f102 	lsr.w	r1, r1, r2
 8000416:	f1c2 0220 	rsb	r2, r2, #32
 800041a:	fa00 fc02 	lsl.w	ip, r0, r2
 800041e:	ea5f 0031 	movs.w	r0, r1, rrx
 8000422:	f140 0000 	adc.w	r0, r0, #0
 8000426:	ea53 034c 	orrs.w	r3, r3, ip, lsl #1
 800042a:	bf08      	it	eq
 800042c:	ea20 70dc 	biceq.w	r0, r0, ip, lsr #31
 8000430:	4770      	bx	lr
 8000432:	f092 0f00 	teq	r2, #0
 8000436:	f000 4c00 	and.w	ip, r0, #2147483648	@ 0x80000000
 800043a:	bf02      	ittt	eq
 800043c:	0040      	lsleq	r0, r0, #1
 800043e:	f410 0f00 	tsteq.w	r0, #8388608	@ 0x800000
 8000442:	3a01      	subeq	r2, #1
 8000444:	d0f9      	beq.n	800043a <__aeabi_fmul+0xce>
 8000446:	ea40 000c 	orr.w	r0, r0, ip
 800044a:	f093 0f00 	teq	r3, #0
 800044e:	f001 4c00 	and.w	ip, r1, #2147483648	@ 0x80000000
 8000452:	bf02      	ittt	eq
 8000454:	0049      	lsleq	r1, r1, #1
 8000456:	f411 0f00 	tsteq.w	r1, #8388608	@ 0x800000
 800045a:	3b01      	subeq	r3, #1
 800045c:	d0f9      	beq.n	8000452 <__aeabi_fmul+0xe6>
 800045e:	ea41 010c 	orr.w	r1, r1, ip
 8000462:	e78f      	b.n	8000384 <__aeabi_fmul+0x18>
 8000464:	ea0c 53d1 	and.w	r3, ip, r1, lsr #23
 8000468:	ea92 0f0c 	teq	r2, ip
 800046c:	bf18      	it	ne
 800046e:	ea93 0f0c 	teqne	r3, ip
 8000472:	d00a      	beq.n	800048a <__aeabi_fmul+0x11e>
 8000474:	f030 4c00 	bics.w	ip, r0, #2147483648	@ 0x80000000
 8000478:	bf18      	it	ne
 800047a:	f031 4c00 	bicsne.w	ip, r1, #2147483648	@ 0x80000000
 800047e:	d1d8      	bne.n	8000432 <__aeabi_fmul+0xc6>
 8000480:	ea80 0001 	eor.w	r0, r0, r1
 8000484:	f000 4000 	and.w	r0, r0, #2147483648	@ 0x80000000
 8000488:	4770      	bx	lr
 800048a:	f090 0f00 	teq	r0, #0
 800048e:	bf17      	itett	ne
 8000490:	f090 4f00 	teqne	r0, #2147483648	@ 0x80000000
 8000494:	4608      	moveq	r0, r1
 8000496:	f091 0f00 	teqne	r1, #0
 800049a:	f091 4f00 	teqne	r1, #2147483648	@ 0x80000000
 800049e:	d014      	beq.n	80004ca <__aeabi_fmul+0x15e>
 80004a0:	ea92 0f0c 	teq	r2, ip
 80004a4:	d101      	bne.n	80004aa <__aeabi_fmul+0x13e>
 80004a6:	0242      	lsls	r2, r0, #9
 80004a8:	d10f      	bne.n	80004ca <__aeabi_fmul+0x15e>
 80004aa:	ea93 0f0c 	teq	r3, ip
 80004ae:	d103      	bne.n	80004b8 <__aeabi_fmul+0x14c>
 80004b0:	024b      	lsls	r3, r1, #9
 80004b2:	bf18      	it	ne
 80004b4:	4608      	movne	r0, r1
 80004b6:	d108      	bne.n	80004ca <__aeabi_fmul+0x15e>
 80004b8:	ea80 0001 	eor.w	r0, r0, r1
 80004bc:	f000 4000 	and.w	r0, r0, #2147483648	@ 0x80000000
 80004c0:	f040 40fe 	orr.w	r0, r0, #2130706432	@ 0x7f000000
 80004c4:	f440 0000 	orr.w	r0, r0, #8388608	@ 0x800000
 80004c8:	4770      	bx	lr
 80004ca:	f040 40fe 	orr.w	r0, r0, #2130706432	@ 0x7f000000
 80004ce:	f440 0040 	orr.w	r0, r0, #12582912	@ 0xc00000
 80004d2:	4770      	bx	lr

080004d4 <__aeabi_fdiv>:
 80004d4:	f04f 0cff 	mov.w	ip, #255	@ 0xff
 80004d8:	ea1c 52d0 	ands.w	r2, ip, r0, lsr #23
 80004dc:	bf1e      	ittt	ne
 80004de:	ea1c 53d1 	andsne.w	r3, ip, r1, lsr #23
 80004e2:	ea92 0f0c 	teqne	r2, ip
 80004e6:	ea93 0f0c 	teqne	r3, ip
 80004ea:	d069      	beq.n	80005c0 <__aeabi_fdiv+0xec>
 80004ec:	eba2 0203 	sub.w	r2, r2, r3
 80004f0:	ea80 0c01 	eor.w	ip, r0, r1
 80004f4:	0249      	lsls	r1, r1, #9
 80004f6:	ea4f 2040 	mov.w	r0, r0, lsl #9
 80004fa:	d037      	beq.n	800056c <__aeabi_fdiv+0x98>
 80004fc:	f04f 5380 	mov.w	r3, #268435456	@ 0x10000000
 8000500:	ea43 1111 	orr.w	r1, r3, r1, lsr #4
 8000504:	ea43 1310 	orr.w	r3, r3, r0, lsr #4
 8000508:	f00c 4000 	and.w	r0, ip, #2147483648	@ 0x80000000
 800050c:	428b      	cmp	r3, r1
 800050e:	bf38      	it	cc
 8000510:	005b      	lslcc	r3, r3, #1
 8000512:	f142 027d 	adc.w	r2, r2, #125	@ 0x7d
 8000516:	f44f 0c00 	mov.w	ip, #8388608	@ 0x800000
 800051a:	428b      	cmp	r3, r1
 800051c:	bf24      	itt	cs
 800051e:	1a5b      	subcs	r3, r3, r1
 8000520:	ea40 000c 	orrcs.w	r0, r0, ip
 8000524:	ebb3 0f51 	cmp.w	r3, r1, lsr #1
 8000528:	bf24      	itt	cs
 800052a:	eba3 0351 	subcs.w	r3, r3, r1, lsr #1
 800052e:	ea40 005c 	orrcs.w	r0, r0, ip, lsr #1
 8000532:	ebb3 0f91 	cmp.w	r3, r1, lsr #2
 8000536:	bf24      	itt	cs
 8000538:	eba3 0391 	subcs.w	r3, r3, r1, lsr #2
 800053c:	ea40 009c 	orrcs.w	r0, r0, ip, lsr #2
 8000540:	ebb3 0fd1 	cmp.w	r3, r1, lsr #3
 8000544:	bf24      	itt	cs
 8000546:	eba3 03d1 	subcs.w	r3, r3, r1, lsr #3
 800054a:	ea40 00dc 	orrcs.w	r0, r0, ip, lsr #3
 800054e:	011b      	lsls	r3, r3, #4
 8000550:	bf18      	it	ne
 8000552:	ea5f 1c1c 	movsne.w	ip, ip, lsr #4
 8000556:	d1e0      	bne.n	800051a <__aeabi_fdiv+0x46>
 8000558:	2afd      	cmp	r2, #253	@ 0xfd
 800055a:	f63f af50 	bhi.w	80003fe <__aeabi_fmul+0x92>
 800055e:	428b      	cmp	r3, r1
 8000560:	eb40 50c2 	adc.w	r0, r0, r2, lsl #23
 8000564:	bf08      	it	eq
 8000566:	f020 0001 	biceq.w	r0, r0, #1
 800056a:	4770      	bx	lr
 800056c:	f00c 4c00 	and.w	ip, ip, #2147483648	@ 0x80000000
 8000570:	ea4c 2050 	orr.w	r0, ip, r0, lsr #9
 8000574:	327f      	adds	r2, #127	@ 0x7f
 8000576:	bfc2      	ittt	gt
 8000578:	f1d2 03ff 	rsbsgt	r3, r2, #255	@ 0xff
 800057c:	ea40 50c2 	orrgt.w	r0, r0, r2, lsl #23
 8000580:	4770      	bxgt	lr
 8000582:	f440 0000 	orr.w	r0, r0, #8388608	@ 0x800000
 8000586:	f04f 0300 	mov.w	r3, #0
 800058a:	3a01      	subs	r2, #1
 800058c:	e737      	b.n	80003fe <__aeabi_fmul+0x92>
 800058e:	f092 0f00 	teq	r2, #0
 8000592:	f000 4c00 	and.w	ip, r0, #2147483648	@ 0x80000000
 8000596:	bf02      	ittt	eq
 8000598:	0040      	lsleq	r0, r0, #1
 800059a:	f410 0f00 	tsteq.w	r0, #8388608	@ 0x800000
 800059e:	3a01      	subeq	r2, #1
 80005a0:	d0f9      	beq.n	8000596 <__aeabi_fdiv+0xc2>
 80005a2:	ea40 000c 	orr.w	r0, r0, ip
 80005a6:	f093 0f00 	teq	r3, #0
 80005aa:	f001 4c00 	and.w	ip, r1, #2147483648	@ 0x80000000
 80005ae:	bf02      	ittt	eq
 80005b0:	0049      	lsleq	r1, r1, #1
 80005b2:	f411 0f00 	tsteq.w	r1, #8388608	@ 0x800000
 80005b6:	3b01      	subeq	r3, #1
 80005b8:	d0f9      	beq.n	80005ae <__aeabi_fdiv+0xda>
 80005ba:	ea41 010c 	orr.w	r1, r1, ip
 80005be:	e795      	b.n	80004ec <__aeabi_fdiv+0x18>
 80005c0:	ea0c 53d1 	and.w	r3, ip, r1, lsr #23
 80005c4:	ea92 0f0c 	teq	r2, ip
 80005c8:	d108      	bne.n	80005dc <__aeabi_fdiv+0x108>
 80005ca:	0242      	lsls	r2, r0, #9
 80005cc:	f47f af7d 	bne.w	80004ca <__aeabi_fmul+0x15e>
 80005d0:	ea93 0f0c 	teq	r3, ip
 80005d4:	f47f af70 	bne.w	80004b8 <__aeabi_fmul+0x14c>
 80005d8:	4608      	mov	r0, r1
 80005da:	e776      	b.n	80004ca <__aeabi_fmul+0x15e>
 80005dc:	ea93 0f0c 	teq	r3, ip
 80005e0:	d104      	bne.n	80005ec <__aeabi_fdiv+0x118>
 80005e2:	024b      	lsls	r3, r1, #9
 80005e4:	f43f af4c 	beq.w	8000480 <__aeabi_fmul+0x114>
 80005e8:	4608      	mov	r0, r1
 80005ea:	e76e      	b.n	80004ca <__aeabi_fmul+0x15e>
 80005ec:	f030 4c00 	bics.w	ip, r0, #2147483648	@ 0x80000000
 80005f0:	bf18      	it	ne
 80005f2:	f031 4c00 	bicsne.w	ip, r1, #2147483648	@ 0x80000000
 80005f6:	d1ca      	bne.n	800058e <__aeabi_fdiv+0xba>
 80005f8:	f030 4200 	bics.w	r2, r0, #2147483648	@ 0x80000000
 80005fc:	f47f af5c 	bne.w	80004b8 <__aeabi_fmul+0x14c>
 8000600:	f031 4300 	bics.w	r3, r1, #2147483648	@ 0x80000000
 8000604:	f47f af3c 	bne.w	8000480 <__aeabi_fmul+0x114>
 8000608:	e75f      	b.n	80004ca <__aeabi_fmul+0x15e>
 800060a:	bf00      	nop

0800060c <__gesf2>:
 800060c:	f04f 3cff 	mov.w	ip, #4294967295
 8000610:	e006      	b.n	8000620 <__cmpsf2+0x4>
 8000612:	bf00      	nop

08000614 <__lesf2>:
 8000614:	f04f 0c01 	mov.w	ip, #1
 8000618:	e002      	b.n	8000620 <__cmpsf2+0x4>
 800061a:	bf00      	nop

0800061c <__cmpsf2>:
 800061c:	f04f 0c01 	mov.w	ip, #1
 8000620:	f84d cd04 	str.w	ip, [sp, #-4]!
 8000624:	ea4f 0240 	mov.w	r2, r0, lsl #1
 8000628:	ea4f 0341 	mov.w	r3, r1, lsl #1
 800062c:	ea7f 6c22 	mvns.w	ip, r2, asr #24
 8000630:	bf18      	it	ne
 8000632:	ea7f 6c23 	mvnsne.w	ip, r3, asr #24
 8000636:	d011      	beq.n	800065c <__cmpsf2+0x40>
 8000638:	b001      	add	sp, #4
 800063a:	ea52 0c53 	orrs.w	ip, r2, r3, lsr #1
 800063e:	bf18      	it	ne
 8000640:	ea90 0f01 	teqne	r0, r1
 8000644:	bf58      	it	pl
 8000646:	ebb2 0003 	subspl.w	r0, r2, r3
 800064a:	bf88      	it	hi
 800064c:	17c8      	asrhi	r0, r1, #31
 800064e:	bf38      	it	cc
 8000650:	ea6f 70e1 	mvncc.w	r0, r1, asr #31
 8000654:	bf18      	it	ne
 8000656:	f040 0001 	orrne.w	r0, r0, #1
 800065a:	4770      	bx	lr
 800065c:	ea7f 6c22 	mvns.w	ip, r2, asr #24
 8000660:	d102      	bne.n	8000668 <__cmpsf2+0x4c>
 8000662:	ea5f 2c40 	movs.w	ip, r0, lsl #9
 8000666:	d105      	bne.n	8000674 <__cmpsf2+0x58>
 8000668:	ea7f 6c23 	mvns.w	ip, r3, asr #24
 800066c:	d1e4      	bne.n	8000638 <__cmpsf2+0x1c>
 800066e:	ea5f 2c41 	movs.w	ip, r1, lsl #9
 8000672:	d0e1      	beq.n	8000638 <__cmpsf2+0x1c>
 8000674:	f85d 0b04 	ldr.w	r0, [sp], #4
 8000678:	4770      	bx	lr
 800067a:	bf00      	nop

0800067c <__aeabi_cfrcmple>:
 800067c:	4684      	mov	ip, r0
 800067e:	4608      	mov	r0, r1
 8000680:	4661      	mov	r1, ip
 8000682:	e7ff      	b.n	8000684 <__aeabi_cfcmpeq>

08000684 <__aeabi_cfcmpeq>:
 8000684:	b50f      	push	{r0, r1, r2, r3, lr}
 8000686:	f7ff ffc9 	bl	800061c <__cmpsf2>
 800068a:	2800      	cmp	r0, #0
 800068c:	bf48      	it	mi
 800068e:	f110 0f00 	cmnmi.w	r0, #0
 8000692:	bd0f      	pop	{r0, r1, r2, r3, pc}

08000694 <__aeabi_fcmpeq>:
 8000694:	f84d ed08 	str.w	lr, [sp, #-8]!
 8000698:	f7ff fff4 	bl	8000684 <__aeabi_cfcmpeq>
 800069c:	bf0c      	ite	eq
 800069e:	2001      	moveq	r0, #1
 80006a0:	2000      	movne	r0, #0
 80006a2:	f85d fb08 	ldr.w	pc, [sp], #8
 80006a6:	bf00      	nop

080006a8 <__aeabi_fcmplt>:
 80006a8:	f84d ed08 	str.w	lr, [sp, #-8]!
 80006ac:	f7ff ffea 	bl	8000684 <__aeabi_cfcmpeq>
 80006b0:	bf34      	ite	cc
 80006b2:	2001      	movcc	r0, #1
 80006b4:	2000      	movcs	r0, #0
 80006b6:	f85d fb08 	ldr.w	pc, [sp], #8
 80006ba:	bf00      	nop

080006bc <__aeabi_fcmple>:
 80006bc:	f84d ed08 	str.w	lr, [sp, #-8]!
 80006c0:	f7ff ffe0 	bl	8000684 <__aeabi_cfcmpeq>
 80006c4:	bf94      	ite	ls
 80006c6:	2001      	movls	r0, #1
 80006c8:	2000      	movhi	r0, #0
 80006ca:	f85d fb08 	ldr.w	pc, [sp], #8
 80006ce:	bf00      	nop

080006d0 <__aeabi_fcmpge>:
 80006d0:	f84d ed08 	str.w	lr, [sp, #-8]!
 80006d4:	f7ff ffd2 	bl	800067c <__aeabi_cfrcmple>
 80006d8:	bf94      	ite	ls
 80006da:	2001      	movls	r0, #1
 80006dc:	2000      	movhi	r0, #0
 80006de:	f85d fb08 	ldr.w	pc, [sp], #8
 80006e2:	bf00      	nop

080006e4 <__aeabi_fcmpgt>:
 80006e4:	f84d ed08 	str.w	lr, [sp, #-8]!
 80006e8:	f7ff ffc8 	bl	800067c <__aeabi_cfrcmple>
 80006ec:	bf34      	ite	cc
 80006ee:	2001      	movcc	r0, #1
 80006f0:	2000      	movcs	r0, #0
 80006f2:	f85d fb08 	ldr.w	pc, [sp], #8
 80006f6:	bf00      	nop

080006f8 <__aeabi_f2uiz>:
 80006f8:	0042      	lsls	r2, r0, #1
 80006fa:	d20e      	bcs.n	800071a <__aeabi_f2uiz+0x22>
 80006fc:	f1b2 4ffe 	cmp.w	r2, #2130706432	@ 0x7f000000
 8000700:	d30b      	bcc.n	800071a <__aeabi_f2uiz+0x22>
 8000702:	f04f 039e 	mov.w	r3, #158	@ 0x9e
 8000706:	ebb3 6212 	subs.w	r2, r3, r2, lsr #24
 800070a:	d409      	bmi.n	8000720 <__aeabi_f2uiz+0x28>
 800070c:	ea4f 2300 	mov.w	r3, r0, lsl #8
 8000710:	f043 4300 	orr.w	r3, r3, #2147483648	@ 0x80000000
 8000714:	fa23 f002 	lsr.w	r0, r3, r2
 8000718:	4770      	bx	lr
 800071a:	f04f 0000 	mov.w	r0, #0
 800071e:	4770      	bx	lr
 8000720:	f112 0f61 	cmn.w	r2, #97	@ 0x61
 8000724:	d101      	bne.n	800072a <__aeabi_f2uiz+0x32>
 8000726:	0242      	lsls	r2, r0, #9
 8000728:	d102      	bne.n	8000730 <__aeabi_f2uiz+0x38>
 800072a:	f04f 30ff 	mov.w	r0, #4294967295
 800072e:	4770      	bx	lr
 8000730:	f04f 0000 	mov.w	r0, #0
 8000734:	4770      	bx	lr
 8000736:	bf00      	nop

08000738 <ChargeControl_CheckSK60XConditions>:
 8000738:	b510      	push	{r4, lr}
 800073a:	4c07      	ldr	r4, [pc, #28]	@ (8000758 <ChargeControl_CheckSK60XConditions+0x20>)
 800073c:	8960      	ldrh	r0, [r4, #10]
 800073e:	f7ff fdc1 	bl	80002c4 <__aeabi_i2f>
 8000742:	4906      	ldr	r1, [pc, #24]	@ (800075c <ChargeControl_CheckSK60XConditions+0x24>)
 8000744:	f7ff ffc4 	bl	80006d0 <__aeabi_fcmpge>
 8000748:	b120      	cbz	r0, 8000754 <ChargeControl_CheckSK60XConditions+0x1c>
 800074a:	88a0      	ldrh	r0, [r4, #4]
 800074c:	8823      	ldrh	r3, [r4, #0]
 800074e:	1ac3      	subs	r3, r0, r3
 8000750:	4258      	negs	r0, r3
 8000752:	4158      	adcs	r0, r3
 8000754:	bd10      	pop	{r4, pc}
 8000756:	bf00      	nop
 8000758:	200007be 	.word	0x200007be
 800075c:	41c00000 	.word	0x41c00000

08000760 <ChargeControl_SetChargeRelay>:
 8000760:	4b05      	ldr	r3, [pc, #20]	@ (8000778 <ChargeControl_SetChargeRelay+0x18>)
 8000762:	4602      	mov	r2, r0
 8000764:	7859      	ldrb	r1, [r3, #1]
 8000766:	4281      	cmp	r1, r0
 8000768:	d004      	beq.n	8000774 <ChargeControl_SetChargeRelay+0x14>
 800076a:	7058      	strb	r0, [r3, #1]
 800076c:	2140      	movs	r1, #64	@ 0x40
 800076e:	4803      	ldr	r0, [pc, #12]	@ (800077c <ChargeControl_SetChargeRelay+0x1c>)
 8000770:	f002 b8aa 	b.w	80028c8 <HAL_GPIO_WritePin>
 8000774:	4770      	bx	lr
 8000776:	bf00      	nop
 8000778:	2000003c 	.word	0x2000003c
 800077c:	40010800 	.word	0x40010800

08000780 <ChargeControl_HandleRequest>:
 8000780:	4a04      	ldr	r2, [pc, #16]	@ (8000794 <ChargeControl_HandleRequest+0x14>)
 8000782:	7811      	ldrb	r1, [r2, #0]
 8000784:	4281      	cmp	r1, r0
 8000786:	d004      	beq.n	8000792 <ChargeControl_HandleRequest+0x12>
 8000788:	7010      	strb	r0, [r2, #0]
 800078a:	b910      	cbnz	r0, 8000792 <ChargeControl_HandleRequest+0x12>
 800078c:	7090      	strb	r0, [r2, #2]
 800078e:	f7ff bfe7 	b.w	8000760 <ChargeControl_SetChargeRelay>
 8000792:	4770      	bx	lr
 8000794:	2000003c 	.word	0x2000003c

08000798 <ChargeControl_GetChargeStateForModbus>:
 8000798:	4b02      	ldr	r3, [pc, #8]	@ (80007a4 <ChargeControl_GetChargeStateForModbus+0xc>)
 800079a:	7818      	ldrb	r0, [r3, #0]
 800079c:	b100      	cbz	r0, 80007a0 <ChargeControl_GetChargeStateForModbus+0x8>
 800079e:	7898      	ldrb	r0, [r3, #2]
 80007a0:	4770      	bx	lr
 80007a2:	bf00      	nop
 80007a4:	2000003c 	.word	0x2000003c

080007a8 <ChargeControl_Process>:
 80007a8:	b538      	push	{r3, r4, r5, lr}
 80007aa:	f001 fecb 	bl	8002544 <HAL_GetTick>
 80007ae:	4c1b      	ldr	r4, [pc, #108]	@ (800081c <ChargeControl_Process+0x74>)
 80007b0:	6863      	ldr	r3, [r4, #4]
 80007b2:	78a5      	ldrb	r5, [r4, #2]
 80007b4:	1ac3      	subs	r3, r0, r3
 80007b6:	2b63      	cmp	r3, #99	@ 0x63
 80007b8:	d801      	bhi.n	80007be <ChargeControl_Process+0x16>
 80007ba:	4628      	mov	r0, r5
 80007bc:	bd38      	pop	{r3, r4, r5, pc}
 80007be:	2d01      	cmp	r5, #1
 80007c0:	6060      	str	r0, [r4, #4]
 80007c2:	d008      	beq.n	80007d6 <ChargeControl_Process+0x2e>
 80007c4:	2d02      	cmp	r5, #2
 80007c6:	d01b      	beq.n	8000800 <ChargeControl_Process+0x58>
 80007c8:	b95d      	cbnz	r5, 80007e2 <ChargeControl_Process+0x3a>
 80007ca:	7823      	ldrb	r3, [r4, #0]
 80007cc:	b14b      	cbz	r3, 80007e2 <ChargeControl_Process+0x3a>
 80007ce:	f001 fc91 	bl	80020f4 <SK60X_Read_Data>
 80007d2:	2301      	movs	r3, #1
 80007d4:	e012      	b.n	80007fc <ChargeControl_Process+0x54>
 80007d6:	7823      	ldrb	r3, [r4, #0]
 80007d8:	b92b      	cbnz	r3, 80007e6 <ChargeControl_Process+0x3e>
 80007da:	2000      	movs	r0, #0
 80007dc:	70a0      	strb	r0, [r4, #2]
 80007de:	f7ff ffbf 	bl	8000760 <ChargeControl_SetChargeRelay>
 80007e2:	78a0      	ldrb	r0, [r4, #2]
 80007e4:	e7ea      	b.n	80007bc <ChargeControl_Process+0x14>
 80007e6:	f001 fc85 	bl	80020f4 <SK60X_Read_Data>
 80007ea:	f7ff ffa5 	bl	8000738 <ChargeControl_CheckSK60XConditions>
 80007ee:	70e0      	strb	r0, [r4, #3]
 80007f0:	2800      	cmp	r0, #0
 80007f2:	d0f6      	beq.n	80007e2 <ChargeControl_Process+0x3a>
 80007f4:	4628      	mov	r0, r5
 80007f6:	f7ff ffb3 	bl	8000760 <ChargeControl_SetChargeRelay>
 80007fa:	2302      	movs	r3, #2
 80007fc:	70a3      	strb	r3, [r4, #2]
 80007fe:	e7f0      	b.n	80007e2 <ChargeControl_Process+0x3a>
 8000800:	7823      	ldrb	r3, [r4, #0]
 8000802:	2b00      	cmp	r3, #0
 8000804:	d0e9      	beq.n	80007da <ChargeControl_Process+0x32>
 8000806:	f001 fc75 	bl	80020f4 <SK60X_Read_Data>
 800080a:	f7ff ff95 	bl	8000738 <ChargeControl_CheckSK60XConditions>
 800080e:	70e0      	strb	r0, [r4, #3]
 8000810:	2800      	cmp	r0, #0
 8000812:	d1e6      	bne.n	80007e2 <ChargeControl_Process+0x3a>
 8000814:	f7ff ffa4 	bl	8000760 <ChargeControl_SetChargeRelay>
 8000818:	e7db      	b.n	80007d2 <ChargeControl_Process+0x2a>
 800081a:	bf00      	nop
 800081c:	2000003c 	.word	0x2000003c

08000820 <DalyBMS_Request>:
 8000820:	b510      	push	{r4, lr}
 8000822:	2300      	movs	r3, #0
 8000824:	24a5      	movs	r4, #165	@ 0xa5
 8000826:	4910      	ldr	r1, [pc, #64]	@ (8000868 <DalyBMS_Request+0x48>)
 8000828:	1f0a      	subs	r2, r1, #4
 800082a:	600b      	str	r3, [r1, #0]
 800082c:	604b      	str	r3, [r1, #4]
 800082e:	720b      	strb	r3, [r1, #8]
 8000830:	f801 4c04 	strb.w	r4, [r1, #-4]
 8000834:	2140      	movs	r1, #64	@ 0x40
 8000836:	7051      	strb	r1, [r2, #1]
 8000838:	2108      	movs	r1, #8
 800083a:	7090      	strb	r0, [r2, #2]
 800083c:	70d1      	strb	r1, [r2, #3]
 800083e:	4610      	mov	r0, r2
 8000840:	4619      	mov	r1, r3
 8000842:	f812 4b01 	ldrb.w	r4, [r2], #1
 8000846:	3301      	adds	r3, #1
 8000848:	4421      	add	r1, r4
 800084a:	2b0b      	cmp	r3, #11
 800084c:	b2c9      	uxtb	r1, r1
 800084e:	d1f8      	bne.n	8000842 <DalyBMS_Request+0x22>
 8000850:	7301      	strb	r1, [r0, #12]
 8000852:	2364      	movs	r3, #100	@ 0x64
 8000854:	220d      	movs	r2, #13
 8000856:	4905      	ldr	r1, [pc, #20]	@ (800086c <DalyBMS_Request+0x4c>)
 8000858:	4805      	ldr	r0, [pc, #20]	@ (8000870 <DalyBMS_Request+0x50>)
 800085a:	f003 fd9c 	bl	8004396 <HAL_UART_Transmit>
 800085e:	fab0 f080 	clz	r0, r0
 8000862:	0940      	lsrs	r0, r0, #5
 8000864:	bd10      	pop	{r4, pc}
 8000866:	bf00      	nop
 8000868:	2000018f 	.word	0x2000018f
 800086c:	2000018b 	.word	0x2000018b
 8000870:	200004dc 	.word	0x200004dc

08000874 <DalyBMS_Recive>:
 8000874:	b5f8      	push	{r3, r4, r5, r6, r7, lr}
 8000876:	2234      	movs	r2, #52	@ 0x34
 8000878:	4604      	mov	r4, r0
 800087a:	2100      	movs	r1, #0
 800087c:	481b      	ldr	r0, [pc, #108]	@ (80008ec <DalyBMS_Recive+0x78>)
 800087e:	f004 ff05 	bl	800568c <memset>
 8000882:	2234      	movs	r2, #52	@ 0x34
 8000884:	2100      	movs	r1, #0
 8000886:	481a      	ldr	r0, [pc, #104]	@ (80008f0 <DalyBMS_Recive+0x7c>)
 8000888:	f004 ff00 	bl	800568c <memset>
 800088c:	220d      	movs	r2, #13
 800088e:	23c8      	movs	r3, #200	@ 0xc8
 8000890:	4362      	muls	r2, r4
 8000892:	4916      	ldr	r1, [pc, #88]	@ (80008ec <DalyBMS_Recive+0x78>)
 8000894:	4817      	ldr	r0, [pc, #92]	@ (80008f4 <DalyBMS_Recive+0x80>)
 8000896:	f003 fdcc 	bl	8004432 <HAL_UART_Receive>
 800089a:	4603      	mov	r3, r0
 800089c:	b928      	cbnz	r0, 80008aa <DalyBMS_Recive+0x36>
 800089e:	4914      	ldr	r1, [pc, #80]	@ (80008f0 <DalyBMS_Recive+0x7c>)
 80008a0:	4812      	ldr	r0, [pc, #72]	@ (80008ec <DalyBMS_Recive+0x78>)
 80008a2:	429c      	cmp	r4, r3
 80008a4:	d803      	bhi.n	80008ae <DalyBMS_Recive+0x3a>
 80008a6:	2001      	movs	r0, #1
 80008a8:	e000      	b.n	80008ac <DalyBMS_Recive+0x38>
 80008aa:	2000      	movs	r0, #0
 80008ac:	bdf8      	pop	{r3, r4, r5, r6, r7, pc}
 80008ae:	460f      	mov	r7, r1
 80008b0:	4602      	mov	r2, r0
 80008b2:	460d      	mov	r5, r1
 80008b4:	f100 060c 	add.w	r6, r0, #12
 80008b8:	f852 cb04 	ldr.w	ip, [r2], #4
 80008bc:	42b2      	cmp	r2, r6
 80008be:	f845 cb04 	str.w	ip, [r5], #4
 80008c2:	d1f9      	bne.n	80008b8 <DalyBMS_Recive+0x44>
 80008c4:	7812      	ldrb	r2, [r2, #0]
 80008c6:	460e      	mov	r6, r1
 80008c8:	702a      	strb	r2, [r5, #0]
 80008ca:	2200      	movs	r2, #0
 80008cc:	4615      	mov	r5, r2
 80008ce:	f816 cb01 	ldrb.w	ip, [r6], #1
 80008d2:	3501      	adds	r5, #1
 80008d4:	4462      	add	r2, ip
 80008d6:	2d0c      	cmp	r5, #12
 80008d8:	b2d2      	uxtb	r2, r2
 80008da:	d1f8      	bne.n	80008ce <DalyBMS_Recive+0x5a>
 80008dc:	7b3d      	ldrb	r5, [r7, #12]
 80008de:	310d      	adds	r1, #13
 80008e0:	4295      	cmp	r5, r2
 80008e2:	f100 000d 	add.w	r0, r0, #13
 80008e6:	d1e0      	bne.n	80008aa <DalyBMS_Recive+0x36>
 80008e8:	3301      	adds	r3, #1
 80008ea:	e7da      	b.n	80008a2 <DalyBMS_Recive+0x2e>
 80008ec:	20000123 	.word	0x20000123
 80008f0:	20000157 	.word	0x20000157
 80008f4:	200004dc 	.word	0x200004dc

080008f8 <DalyBMS_Get_Pack_Data>:
 80008f8:	b5f8      	push	{r3, r4, r5, r6, r7, lr}
 80008fa:	2090      	movs	r0, #144	@ 0x90
 80008fc:	f7ff ff90 	bl	8000820 <DalyBMS_Request>
 8000900:	b910      	cbnz	r0, 8000908 <DalyBMS_Get_Pack_Data+0x10>
 8000902:	2500      	movs	r5, #0
 8000904:	4628      	mov	r0, r5
 8000906:	bdf8      	pop	{r3, r4, r5, r6, r7, pc}
 8000908:	2001      	movs	r0, #1
 800090a:	f7ff ffb3 	bl	8000874 <DalyBMS_Recive>
 800090e:	4605      	mov	r5, r0
 8000910:	2800      	cmp	r0, #0
 8000912:	d0f6      	beq.n	8000902 <DalyBMS_Get_Pack_Data+0xa>
 8000914:	4f12      	ldr	r7, [pc, #72]	@ (8000960 <DalyBMS_Get_Pack_Data+0x68>)
 8000916:	893c      	ldrh	r4, [r7, #8]
 8000918:	ba64      	rev16	r4, r4
 800091a:	b2a4      	uxth	r4, r4
 800091c:	f5a4 44ea 	sub.w	r4, r4, #29952	@ 0x7500
 8000920:	3c30      	subs	r4, #48	@ 0x30
 8000922:	4620      	mov	r0, r4
 8000924:	f7ff fcce 	bl	80002c4 <__aeabi_i2f>
 8000928:	490e      	ldr	r1, [pc, #56]	@ (8000964 <DalyBMS_Get_Pack_Data+0x6c>)
 800092a:	f7ff fdd3 	bl	80004d4 <__aeabi_fdiv>
 800092e:	490e      	ldr	r1, [pc, #56]	@ (8000968 <DalyBMS_Get_Pack_Data+0x70>)
 8000930:	f7ff feb0 	bl	8000694 <__aeabi_fcmpeq>
 8000934:	2800      	cmp	r0, #0
 8000936:	d1e4      	bne.n	8000902 <DalyBMS_Get_Pack_Data+0xa>
 8000938:	897e      	ldrh	r6, [r7, #10]
 800093a:	ba76      	rev16	r6, r6
 800093c:	b2b0      	uxth	r0, r6
 800093e:	f7ff fcc1 	bl	80002c4 <__aeabi_i2f>
 8000942:	4908      	ldr	r1, [pc, #32]	@ (8000964 <DalyBMS_Get_Pack_Data+0x6c>)
 8000944:	f7ff fdc6 	bl	80004d4 <__aeabi_fdiv>
 8000948:	4908      	ldr	r1, [pc, #32]	@ (800096c <DalyBMS_Get_Pack_Data+0x74>)
 800094a:	f7ff fecb 	bl	80006e4 <__aeabi_fcmpgt>
 800094e:	2800      	cmp	r0, #0
 8000950:	d1d7      	bne.n	8000902 <DalyBMS_Get_Pack_Data+0xa>
 8000952:	88ba      	ldrh	r2, [r7, #4]
 8000954:	4b06      	ldr	r3, [pc, #24]	@ (8000970 <DalyBMS_Get_Pack_Data+0x78>)
 8000956:	ba52      	rev16	r2, r2
 8000958:	821a      	strh	r2, [r3, #16]
 800095a:	825c      	strh	r4, [r3, #18]
 800095c:	829e      	strh	r6, [r3, #20]
 800095e:	e7d1      	b.n	8000904 <DalyBMS_Get_Pack_Data+0xc>
 8000960:	20000157 	.word	0x20000157
 8000964:	41200000 	.word	0x41200000
 8000968:	c53b8000 	.word	0xc53b8000
 800096c:	42c80000 	.word	0x42c80000
 8000970:	20000048 	.word	0x20000048

08000974 <DalyBMS_Get_Min_Max_Cell_Voltage>:
 8000974:	b510      	push	{r4, lr}
 8000976:	2091      	movs	r0, #145	@ 0x91
 8000978:	f7ff ff52 	bl	8000820 <DalyBMS_Request>
 800097c:	b908      	cbnz	r0, 8000982 <DalyBMS_Get_Min_Max_Cell_Voltage+0xe>
 800097e:	2000      	movs	r0, #0
 8000980:	bd10      	pop	{r4, pc}
 8000982:	2001      	movs	r0, #1
 8000984:	f7ff ff76 	bl	8000874 <DalyBMS_Recive>
 8000988:	2800      	cmp	r0, #0
 800098a:	d0f8      	beq.n	800097e <DalyBMS_Get_Min_Max_Cell_Voltage+0xa>
 800098c:	4c07      	ldr	r4, [pc, #28]	@ (80009ac <DalyBMS_Get_Min_Max_Cell_Voltage+0x38>)
 800098e:	4a08      	ldr	r2, [pc, #32]	@ (80009b0 <DalyBMS_Get_Min_Max_Cell_Voltage+0x3c>)
 8000990:	79a1      	ldrb	r1, [r4, #6]
 8000992:	88a3      	ldrh	r3, [r4, #4]
 8000994:	7691      	strb	r1, [r2, #26]
 8000996:	f8b4 1007 	ldrh.w	r1, [r4, #7]
 800099a:	ba5b      	rev16	r3, r3
 800099c:	ba49      	rev16	r1, r1
 800099e:	7a64      	ldrb	r4, [r4, #9]
 80009a0:	82d3      	strh	r3, [r2, #22]
 80009a2:	1a5b      	subs	r3, r3, r1
 80009a4:	8311      	strh	r1, [r2, #24]
 80009a6:	76d4      	strb	r4, [r2, #27]
 80009a8:	7713      	strb	r3, [r2, #28]
 80009aa:	e7e9      	b.n	8000980 <DalyBMS_Get_Min_Max_Cell_Voltage+0xc>
 80009ac:	20000157 	.word	0x20000157
 80009b0:	20000048 	.word	0x20000048

080009b4 <DalyBMS_Get_Pack_Temperature>:
 80009b4:	b508      	push	{r3, lr}
 80009b6:	2092      	movs	r0, #146	@ 0x92
 80009b8:	f7ff ff32 	bl	8000820 <DalyBMS_Request>
 80009bc:	b908      	cbnz	r0, 80009c2 <DalyBMS_Get_Pack_Temperature+0xe>
 80009be:	2000      	movs	r0, #0
 80009c0:	bd08      	pop	{r3, pc}
 80009c2:	2001      	movs	r0, #1
 80009c4:	f7ff ff56 	bl	8000874 <DalyBMS_Recive>
 80009c8:	2800      	cmp	r0, #0
 80009ca:	d0f8      	beq.n	80009be <DalyBMS_Get_Pack_Temperature+0xa>
 80009cc:	4a05      	ldr	r2, [pc, #20]	@ (80009e4 <DalyBMS_Get_Pack_Temperature+0x30>)
 80009ce:	7913      	ldrb	r3, [r2, #4]
 80009d0:	7992      	ldrb	r2, [r2, #6]
 80009d2:	4413      	add	r3, r2
 80009d4:	3b50      	subs	r3, #80	@ 0x50
 80009d6:	4a04      	ldr	r2, [pc, #16]	@ (80009e8 <DalyBMS_Get_Pack_Temperature+0x34>)
 80009d8:	eb03 73d3 	add.w	r3, r3, r3, lsr #31
 80009dc:	105b      	asrs	r3, r3, #1
 80009de:	7753      	strb	r3, [r2, #29]
 80009e0:	e7ee      	b.n	80009c0 <DalyBMS_Get_Pack_Temperature+0xc>
 80009e2:	bf00      	nop
 80009e4:	20000157 	.word	0x20000157
 80009e8:	20000048 	.word	0x20000048

080009ec <DalyBMS_Get_Charge_Discharge_Status>:
 80009ec:	b508      	push	{r3, lr}
 80009ee:	2093      	movs	r0, #147	@ 0x93
 80009f0:	f7ff ff16 	bl	8000820 <DalyBMS_Request>
 80009f4:	b908      	cbnz	r0, 80009fa <DalyBMS_Get_Charge_Discharge_Status+0xe>
 80009f6:	2000      	movs	r0, #0
 80009f8:	bd08      	pop	{r3, pc}
 80009fa:	2001      	movs	r0, #1
 80009fc:	f7ff ff3a 	bl	8000874 <DalyBMS_Recive>
 8000a00:	2800      	cmp	r0, #0
 8000a02:	d0f8      	beq.n	80009f6 <DalyBMS_Get_Charge_Discharge_Status+0xa>
 8000a04:	490d      	ldr	r1, [pc, #52]	@ (8000a3c <DalyBMS_Get_Charge_Discharge_Status+0x50>)
 8000a06:	4b0e      	ldr	r3, [pc, #56]	@ (8000a40 <DalyBMS_Get_Charge_Discharge_Status+0x54>)
 8000a08:	790a      	ldrb	r2, [r1, #4]
 8000a0a:	2a01      	cmp	r2, #1
 8000a0c:	d002      	beq.n	8000a14 <DalyBMS_Get_Charge_Discharge_Status+0x28>
 8000a0e:	2a02      	cmp	r2, #2
 8000a10:	d000      	beq.n	8000a14 <DalyBMS_Get_Charge_Discharge_Status+0x28>
 8000a12:	b902      	cbnz	r2, 8000a16 <DalyBMS_Get_Charge_Discharge_Status+0x2a>
 8000a14:	779a      	strb	r2, [r3, #30]
 8000a16:	794a      	ldrb	r2, [r1, #5]
 8000a18:	3a00      	subs	r2, #0
 8000a1a:	bf18      	it	ne
 8000a1c:	2201      	movne	r2, #1
 8000a1e:	77da      	strb	r2, [r3, #31]
 8000a20:	798a      	ldrb	r2, [r1, #6]
 8000a22:	3a00      	subs	r2, #0
 8000a24:	bf18      	it	ne
 8000a26:	2201      	movne	r2, #1
 8000a28:	f883 2020 	strb.w	r2, [r3, #32]
 8000a2c:	79ca      	ldrb	r2, [r1, #7]
 8000a2e:	f883 2021 	strb.w	r2, [r3, #33]	@ 0x21
 8000a32:	894a      	ldrh	r2, [r1, #10]
 8000a34:	ba52      	rev16	r2, r2
 8000a36:	845a      	strh	r2, [r3, #34]	@ 0x22
 8000a38:	e7de      	b.n	80009f8 <DalyBMS_Get_Charge_Discharge_Status+0xc>
 8000a3a:	bf00      	nop
 8000a3c:	20000157 	.word	0x20000157
 8000a40:	20000048 	.word	0x20000048

08000a44 <DalyBMS_Get_Status_Info>:
 8000a44:	b508      	push	{r3, lr}
 8000a46:	2094      	movs	r0, #148	@ 0x94
 8000a48:	f7ff feea 	bl	8000820 <DalyBMS_Request>
 8000a4c:	b908      	cbnz	r0, 8000a52 <DalyBMS_Get_Status_Info+0xe>
 8000a4e:	2000      	movs	r0, #0
 8000a50:	bd08      	pop	{r3, pc}
 8000a52:	2001      	movs	r0, #1
 8000a54:	f7ff ff0e 	bl	8000874 <DalyBMS_Recive>
 8000a58:	2800      	cmp	r0, #0
 8000a5a:	d0f8      	beq.n	8000a4e <DalyBMS_Get_Status_Info+0xa>
 8000a5c:	4a0b      	ldr	r2, [pc, #44]	@ (8000a8c <DalyBMS_Get_Status_Info+0x48>)
 8000a5e:	4b0c      	ldr	r3, [pc, #48]	@ (8000a90 <DalyBMS_Get_Status_Info+0x4c>)
 8000a60:	7911      	ldrb	r1, [r2, #4]
 8000a62:	f883 1024 	strb.w	r1, [r3, #36]	@ 0x24
 8000a66:	7951      	ldrb	r1, [r2, #5]
 8000a68:	f883 1025 	strb.w	r1, [r3, #37]	@ 0x25
 8000a6c:	7991      	ldrb	r1, [r2, #6]
 8000a6e:	3900      	subs	r1, #0
 8000a70:	bf18      	it	ne
 8000a72:	2101      	movne	r1, #1
 8000a74:	f883 1026 	strb.w	r1, [r3, #38]	@ 0x26
 8000a78:	79d1      	ldrb	r1, [r2, #7]
 8000a7a:	7a92      	ldrb	r2, [r2, #10]
 8000a7c:	3900      	subs	r1, #0
 8000a7e:	bf18      	it	ne
 8000a80:	2101      	movne	r1, #1
 8000a82:	f883 2028 	strb.w	r2, [r3, #40]	@ 0x28
 8000a86:	f883 1027 	strb.w	r1, [r3, #39]	@ 0x27
 8000a8a:	e7e1      	b.n	8000a50 <DalyBMS_Get_Status_Info+0xc>
 8000a8c:	20000157 	.word	0x20000157
 8000a90:	20000048 	.word	0x20000048

08000a94 <DalyBMS_Get_Cell_Voltages>:
 8000a94:	b5f8      	push	{r3, r4, r5, r6, r7, lr}
 8000a96:	4d28      	ldr	r5, [pc, #160]	@ (8000b38 <DalyBMS_Get_Cell_Voltages+0xa4>)
 8000a98:	f895 3024 	ldrb.w	r3, [r5, #36]	@ 0x24
 8000a9c:	3b01      	subs	r3, #1
 8000a9e:	2b0f      	cmp	r3, #15
 8000aa0:	d847      	bhi.n	8000b32 <DalyBMS_Get_Cell_Voltages+0x9e>
 8000aa2:	2095      	movs	r0, #149	@ 0x95
 8000aa4:	f7ff febc 	bl	8000820 <DalyBMS_Request>
 8000aa8:	b908      	cbnz	r0, 8000aae <DalyBMS_Get_Cell_Voltages+0x1a>
 8000aaa:	2001      	movs	r0, #1
 8000aac:	bdf8      	pop	{r3, r4, r5, r6, r7, pc}
 8000aae:	2303      	movs	r3, #3
 8000ab0:	f895 4024 	ldrb.w	r4, [r5, #36]	@ 0x24
 8000ab4:	3402      	adds	r4, #2
 8000ab6:	fbb4 f4f3 	udiv	r4, r4, r3
 8000aba:	b2e4      	uxtb	r4, r4
 8000abc:	4620      	mov	r0, r4
 8000abe:	f7ff fed9 	bl	8000874 <DalyBMS_Recive>
 8000ac2:	b3b0      	cbz	r0, 8000b32 <DalyBMS_Get_Cell_Voltages+0x9e>
 8000ac4:	2600      	movs	r6, #0
 8000ac6:	4633      	mov	r3, r6
 8000ac8:	f895 7024 	ldrb.w	r7, [r5, #36]	@ 0x24
 8000acc:	4a1b      	ldr	r2, [pc, #108]	@ (8000b3c <DalyBMS_Get_Cell_Voltages+0xa8>)
 8000ace:	b2f1      	uxtb	r1, r6
 8000ad0:	428c      	cmp	r4, r1
 8000ad2:	d9ea      	bls.n	8000aaa <DalyBMS_Get_Cell_Voltages+0x16>
 8000ad4:	429f      	cmp	r7, r3
 8000ad6:	d91e      	bls.n	8000b16 <DalyBMS_Get_Cell_Voltages+0x82>
 8000ad8:	f892 e005 	ldrb.w	lr, [r2, #5]
 8000adc:	f892 c006 	ldrb.w	ip, [r2, #6]
 8000ae0:	1c58      	adds	r0, r3, #1
 8000ae2:	b2c0      	uxtb	r0, r0
 8000ae4:	eb05 0143 	add.w	r1, r5, r3, lsl #1
 8000ae8:	ea4c 2c0e 	orr.w	ip, ip, lr, lsl #8
 8000aec:	4287      	cmp	r7, r0
 8000aee:	f8a1 c02a 	strh.w	ip, [r1, #42]	@ 0x2a
 8000af2:	d90f      	bls.n	8000b14 <DalyBMS_Get_Cell_Voltages+0x80>
 8000af4:	f892 e007 	ldrb.w	lr, [r2, #7]
 8000af8:	f892 c008 	ldrb.w	ip, [r2, #8]
 8000afc:	1c99      	adds	r1, r3, #2
 8000afe:	b2c9      	uxtb	r1, r1
 8000b00:	eb05 0040 	add.w	r0, r5, r0, lsl #1
 8000b04:	ea4c 2c0e 	orr.w	ip, ip, lr, lsl #8
 8000b08:	428f      	cmp	r7, r1
 8000b0a:	f8a0 c02a 	strh.w	ip, [r0, #42]	@ 0x2a
 8000b0e:	d805      	bhi.n	8000b1c <DalyBMS_Get_Cell_Voltages+0x88>
 8000b10:	460b      	mov	r3, r1
 8000b12:	e000      	b.n	8000b16 <DalyBMS_Get_Cell_Voltages+0x82>
 8000b14:	4603      	mov	r3, r0
 8000b16:	3601      	adds	r6, #1
 8000b18:	320d      	adds	r2, #13
 8000b1a:	e7d8      	b.n	8000ace <DalyBMS_Get_Cell_Voltages+0x3a>
 8000b1c:	f892 c009 	ldrb.w	ip, [r2, #9]
 8000b20:	7a90      	ldrb	r0, [r2, #10]
 8000b22:	3303      	adds	r3, #3
 8000b24:	eb05 0141 	add.w	r1, r5, r1, lsl #1
 8000b28:	ea40 200c 	orr.w	r0, r0, ip, lsl #8
 8000b2c:	b2db      	uxtb	r3, r3
 8000b2e:	8548      	strh	r0, [r1, #42]	@ 0x2a
 8000b30:	e7f1      	b.n	8000b16 <DalyBMS_Get_Cell_Voltages+0x82>
 8000b32:	2000      	movs	r0, #0
 8000b34:	e7ba      	b.n	8000aac <DalyBMS_Get_Cell_Voltages+0x18>
 8000b36:	bf00      	nop
 8000b38:	20000048 	.word	0x20000048
 8000b3c:	20000157 	.word	0x20000157

08000b40 <DalyBMS_Get_Cell_Temperatures>:
 8000b40:	b538      	push	{r3, r4, r5, lr}
 8000b42:	4c10      	ldr	r4, [pc, #64]	@ (8000b84 <DalyBMS_Get_Cell_Temperatures+0x44>)
 8000b44:	f894 3025 	ldrb.w	r3, [r4, #37]	@ 0x25
 8000b48:	3b01      	subs	r3, #1
 8000b4a:	2b03      	cmp	r3, #3
 8000b4c:	d901      	bls.n	8000b52 <DalyBMS_Get_Cell_Temperatures+0x12>
 8000b4e:	2000      	movs	r0, #0
 8000b50:	bd38      	pop	{r3, r4, r5, pc}
 8000b52:	2096      	movs	r0, #150	@ 0x96
 8000b54:	f7ff fe64 	bl	8000820 <DalyBMS_Request>
 8000b58:	2800      	cmp	r0, #0
 8000b5a:	d0f8      	beq.n	8000b4e <DalyBMS_Get_Cell_Temperatures+0xe>
 8000b5c:	2001      	movs	r0, #1
 8000b5e:	f7ff fe89 	bl	8000874 <DalyBMS_Recive>
 8000b62:	2800      	cmp	r0, #0
 8000b64:	d0f3      	beq.n	8000b4e <DalyBMS_Get_Cell_Temperatures+0xe>
 8000b66:	2300      	movs	r3, #0
 8000b68:	4907      	ldr	r1, [pc, #28]	@ (8000b88 <DalyBMS_Get_Cell_Temperatures+0x48>)
 8000b6a:	f894 5025 	ldrb.w	r5, [r4, #37]	@ 0x25
 8000b6e:	3489      	adds	r4, #137	@ 0x89
 8000b70:	b2da      	uxtb	r2, r3
 8000b72:	4295      	cmp	r5, r2
 8000b74:	d9ec      	bls.n	8000b50 <DalyBMS_Get_Cell_Temperatures+0x10>
 8000b76:	f811 2f01 	ldrb.w	r2, [r1, #1]!
 8000b7a:	3301      	adds	r3, #1
 8000b7c:	3a28      	subs	r2, #40	@ 0x28
 8000b7e:	f804 2f01 	strb.w	r2, [r4, #1]!
 8000b82:	e7f5      	b.n	8000b70 <DalyBMS_Get_Cell_Temperatures+0x30>
 8000b84:	20000048 	.word	0x20000048
 8000b88:	2000015b 	.word	0x2000015b

08000b8c <DalyBMS_Get_Cell_Balance_State>:
 8000b8c:	e92d 43f8 	stmdb	sp!, {r3, r4, r5, r6, r7, r8, r9, lr}
 8000b90:	4d1e      	ldr	r5, [pc, #120]	@ (8000c0c <DalyBMS_Get_Cell_Balance_State+0x80>)
 8000b92:	f895 3024 	ldrb.w	r3, [r5, #36]	@ 0x24
 8000b96:	3b01      	subs	r3, #1
 8000b98:	2b0f      	cmp	r3, #15
 8000b9a:	d902      	bls.n	8000ba2 <DalyBMS_Get_Cell_Balance_State+0x16>
 8000b9c:	2000      	movs	r0, #0
 8000b9e:	e8bd 83f8 	ldmia.w	sp!, {r3, r4, r5, r6, r7, r8, r9, pc}
 8000ba2:	2097      	movs	r0, #151	@ 0x97
 8000ba4:	f7ff fe3c 	bl	8000820 <DalyBMS_Request>
 8000ba8:	2800      	cmp	r0, #0
 8000baa:	d0f7      	beq.n	8000b9c <DalyBMS_Get_Cell_Balance_State+0x10>
 8000bac:	2001      	movs	r0, #1
 8000bae:	f7ff fe61 	bl	8000874 <DalyBMS_Recive>
 8000bb2:	2800      	cmp	r0, #0
 8000bb4:	d0f2      	beq.n	8000b9c <DalyBMS_Get_Cell_Balance_State+0x10>
 8000bb6:	2300      	movs	r3, #0
 8000bb8:	2206      	movs	r2, #6
 8000bba:	461c      	mov	r4, r3
 8000bbc:	f895 e024 	ldrb.w	lr, [r5, #36]	@ 0x24
 8000bc0:	f8df c04c 	ldr.w	ip, [pc, #76]	@ 8000c10 <DalyBMS_Get_Cell_Balance_State+0x84>
 8000bc4:	2600      	movs	r6, #0
 8000bc6:	f104 0799 	add.w	r7, r4, #153	@ 0x99
 8000bca:	f81c 8f01 	ldrb.w	r8, [ip, #1]!
 8000bce:	442f      	add	r7, r5
 8000bd0:	45a6      	cmp	lr, r4
 8000bd2:	d911      	bls.n	8000bf8 <DalyBMS_Get_Cell_Balance_State+0x6c>
 8000bd4:	fa48 f106 	asr.w	r1, r8, r6
 8000bd8:	f001 0901 	and.w	r9, r1, #1
 8000bdc:	07c9      	lsls	r1, r1, #31
 8000bde:	bf48      	it	mi
 8000be0:	3301      	addmi	r3, #1
 8000be2:	f106 0601 	add.w	r6, r6, #1
 8000be6:	f104 0401 	add.w	r4, r4, #1
 8000bea:	bf48      	it	mi
 8000bec:	b2db      	uxtbmi	r3, r3
 8000bee:	2e08      	cmp	r6, #8
 8000bf0:	b2e4      	uxtb	r4, r4
 8000bf2:	f807 9f01 	strb.w	r9, [r7, #1]!
 8000bf6:	d1eb      	bne.n	8000bd0 <DalyBMS_Get_Cell_Balance_State+0x44>
 8000bf8:	3a01      	subs	r2, #1
 8000bfa:	f012 02ff 	ands.w	r2, r2, #255	@ 0xff
 8000bfe:	d1e1      	bne.n	8000bc4 <DalyBMS_Get_Cell_Balance_State+0x38>
 8000c00:	3b00      	subs	r3, #0
 8000c02:	bf18      	it	ne
 8000c04:	2301      	movne	r3, #1
 8000c06:	f885 30ca 	strb.w	r3, [r5, #202]	@ 0xca
 8000c0a:	e7c8      	b.n	8000b9e <DalyBMS_Get_Cell_Balance_State+0x12>
 8000c0c:	20000048 	.word	0x20000048
 8000c10:	2000015a 	.word	0x2000015a

08000c14 <DalyBMS_Get_Failure_Codes>:
 8000c14:	b538      	push	{r3, r4, r5, lr}
 8000c16:	2098      	movs	r0, #152	@ 0x98
 8000c18:	f7ff fe02 	bl	8000820 <DalyBMS_Request>
 8000c1c:	b908      	cbnz	r0, 8000c22 <DalyBMS_Get_Failure_Codes+0xe>
 8000c1e:	2000      	movs	r0, #0
 8000c20:	bd38      	pop	{r3, r4, r5, pc}
 8000c22:	2001      	movs	r0, #1
 8000c24:	f7ff fe26 	bl	8000874 <DalyBMS_Recive>
 8000c28:	2800      	cmp	r0, #0
 8000c2a:	d0f8      	beq.n	8000c1e <DalyBMS_Get_Failure_Codes+0xa>
 8000c2c:	2400      	movs	r4, #0
 8000c2e:	2500      	movs	r5, #0
 8000c30:	49b8      	ldr	r1, [pc, #736]	@ (8000f14 <DalyBMS_Get_Failure_Codes+0x300>)
 8000c32:	4bb9      	ldr	r3, [pc, #740]	@ (8000f18 <DalyBMS_Get_Failure_Codes+0x304>)
 8000c34:	790a      	ldrb	r2, [r1, #4]
 8000c36:	e9c3 4534 	strd	r4, r5, [r3, #208]	@ 0xd0
 8000c3a:	0794      	lsls	r4, r2, #30
 8000c3c:	f140 8124 	bpl.w	8000e88 <DalyBMS_Get_Failure_Codes+0x274>
 8000c40:	2401      	movs	r4, #1
 8000c42:	2500      	movs	r5, #0
 8000c44:	e9c3 4534 	strd	r4, r5, [r3, #208]	@ 0xd0
 8000c48:	0714      	lsls	r4, r2, #28
 8000c4a:	f140 8122 	bpl.w	8000e92 <DalyBMS_Get_Failure_Codes+0x27e>
 8000c4e:	f8d3 40d0 	ldr.w	r4, [r3, #208]	@ 0xd0
 8000c52:	f044 0404 	orr.w	r4, r4, #4
 8000c56:	f8c3 40d0 	str.w	r4, [r3, #208]	@ 0xd0
 8000c5a:	0694      	lsls	r4, r2, #26
 8000c5c:	f140 8121 	bpl.w	8000ea2 <DalyBMS_Get_Failure_Codes+0x28e>
 8000c60:	f8d3 40d0 	ldr.w	r4, [r3, #208]	@ 0xd0
 8000c64:	f044 0410 	orr.w	r4, r4, #16
 8000c68:	f8c3 40d0 	str.w	r4, [r3, #208]	@ 0xd0
 8000c6c:	09d4      	lsrs	r4, r2, #7
 8000c6e:	f000 8120 	beq.w	8000eb2 <DalyBMS_Get_Failure_Codes+0x29e>
 8000c72:	f8d3 20d0 	ldr.w	r2, [r3, #208]	@ 0xd0
 8000c76:	f042 0240 	orr.w	r2, r2, #64	@ 0x40
 8000c7a:	f8c3 20d0 	str.w	r2, [r3, #208]	@ 0xd0
 8000c7e:	794a      	ldrb	r2, [r1, #5]
 8000c80:	0794      	lsls	r4, r2, #30
 8000c82:	f140 811e 	bpl.w	8000ec2 <DalyBMS_Get_Failure_Codes+0x2ae>
 8000c86:	f8d3 40d0 	ldr.w	r4, [r3, #208]	@ 0xd0
 8000c8a:	f444 7480 	orr.w	r4, r4, #256	@ 0x100
 8000c8e:	f8c3 40d0 	str.w	r4, [r3, #208]	@ 0xd0
 8000c92:	0714      	lsls	r4, r2, #28
 8000c94:	f140 811d 	bpl.w	8000ed2 <DalyBMS_Get_Failure_Codes+0x2be>
 8000c98:	f8d3 40d0 	ldr.w	r4, [r3, #208]	@ 0xd0
 8000c9c:	f444 6480 	orr.w	r4, r4, #1024	@ 0x400
 8000ca0:	f8c3 40d0 	str.w	r4, [r3, #208]	@ 0xd0
 8000ca4:	0694      	lsls	r4, r2, #26
 8000ca6:	f140 811c 	bpl.w	8000ee2 <DalyBMS_Get_Failure_Codes+0x2ce>
 8000caa:	f8d3 40d0 	ldr.w	r4, [r3, #208]	@ 0xd0
 8000cae:	f444 5480 	orr.w	r4, r4, #4096	@ 0x1000
 8000cb2:	f8c3 40d0 	str.w	r4, [r3, #208]	@ 0xd0
 8000cb6:	09d4      	lsrs	r4, r2, #7
 8000cb8:	f000 811b 	beq.w	8000ef2 <DalyBMS_Get_Failure_Codes+0x2de>
 8000cbc:	f8d3 20d0 	ldr.w	r2, [r3, #208]	@ 0xd0
 8000cc0:	f442 4280 	orr.w	r2, r2, #16384	@ 0x4000
 8000cc4:	f8c3 20d0 	str.w	r2, [r3, #208]	@ 0xd0
 8000cc8:	798a      	ldrb	r2, [r1, #6]
 8000cca:	0794      	lsls	r4, r2, #30
 8000ccc:	f140 8119 	bpl.w	8000f02 <DalyBMS_Get_Failure_Codes+0x2ee>
 8000cd0:	f8d3 40d0 	ldr.w	r4, [r3, #208]	@ 0xd0
 8000cd4:	f444 3480 	orr.w	r4, r4, #65536	@ 0x10000
 8000cd8:	f8c3 40d0 	str.w	r4, [r3, #208]	@ 0xd0
 8000cdc:	0714      	lsls	r4, r2, #28
 8000cde:	f140 811d 	bpl.w	8000f1c <DalyBMS_Get_Failure_Codes+0x308>
 8000ce2:	f8d3 40d0 	ldr.w	r4, [r3, #208]	@ 0xd0
 8000ce6:	f444 2480 	orr.w	r4, r4, #262144	@ 0x40000
 8000cea:	f8c3 40d0 	str.w	r4, [r3, #208]	@ 0xd0
 8000cee:	0694      	lsls	r4, r2, #26
 8000cf0:	f140 811c 	bpl.w	8000f2c <DalyBMS_Get_Failure_Codes+0x318>
 8000cf4:	f8d3 40d0 	ldr.w	r4, [r3, #208]	@ 0xd0
 8000cf8:	f444 1480 	orr.w	r4, r4, #1048576	@ 0x100000
 8000cfc:	f8c3 40d0 	str.w	r4, [r3, #208]	@ 0xd0
 8000d00:	09d4      	lsrs	r4, r2, #7
 8000d02:	f000 811b 	beq.w	8000f3c <DalyBMS_Get_Failure_Codes+0x328>
 8000d06:	f8d3 20d0 	ldr.w	r2, [r3, #208]	@ 0xd0
 8000d0a:	f442 0280 	orr.w	r2, r2, #4194304	@ 0x400000
 8000d0e:	f8c3 20d0 	str.w	r2, [r3, #208]	@ 0xd0
 8000d12:	79ca      	ldrb	r2, [r1, #7]
 8000d14:	0794      	lsls	r4, r2, #30
 8000d16:	f140 8119 	bpl.w	8000f4c <DalyBMS_Get_Failure_Codes+0x338>
 8000d1a:	f8d3 40d0 	ldr.w	r4, [r3, #208]	@ 0xd0
 8000d1e:	f044 7480 	orr.w	r4, r4, #16777216	@ 0x1000000
 8000d22:	f8c3 40d0 	str.w	r4, [r3, #208]	@ 0xd0
 8000d26:	0714      	lsls	r4, r2, #28
 8000d28:	f140 8118 	bpl.w	8000f5c <DalyBMS_Get_Failure_Codes+0x348>
 8000d2c:	f8d3 20d0 	ldr.w	r2, [r3, #208]	@ 0xd0
 8000d30:	f042 6280 	orr.w	r2, r2, #67108864	@ 0x4000000
 8000d34:	f8c3 20d0 	str.w	r2, [r3, #208]	@ 0xd0
 8000d38:	7a0a      	ldrb	r2, [r1, #8]
 8000d3a:	07d4      	lsls	r4, r2, #31
 8000d3c:	bf42      	ittt	mi
 8000d3e:	f8d3 40d0 	ldrmi.w	r4, [r3, #208]	@ 0xd0
 8000d42:	f044 5480 	orrmi.w	r4, r4, #268435456	@ 0x10000000
 8000d46:	f8c3 40d0 	strmi.w	r4, [r3, #208]	@ 0xd0
 8000d4a:	0795      	lsls	r5, r2, #30
 8000d4c:	bf42      	ittt	mi
 8000d4e:	f8d3 40d0 	ldrmi.w	r4, [r3, #208]	@ 0xd0
 8000d52:	f044 5400 	orrmi.w	r4, r4, #536870912	@ 0x20000000
 8000d56:	f8c3 40d0 	strmi.w	r4, [r3, #208]	@ 0xd0
 8000d5a:	0754      	lsls	r4, r2, #29
 8000d5c:	bf42      	ittt	mi
 8000d5e:	f8d3 40d0 	ldrmi.w	r4, [r3, #208]	@ 0xd0
 8000d62:	f044 4480 	orrmi.w	r4, r4, #1073741824	@ 0x40000000
 8000d66:	f8c3 40d0 	strmi.w	r4, [r3, #208]	@ 0xd0
 8000d6a:	0715      	lsls	r5, r2, #28
 8000d6c:	bf42      	ittt	mi
 8000d6e:	f8d3 40d0 	ldrmi.w	r4, [r3, #208]	@ 0xd0
 8000d72:	f044 4400 	orrmi.w	r4, r4, #2147483648	@ 0x80000000
 8000d76:	f8c3 40d0 	strmi.w	r4, [r3, #208]	@ 0xd0
 8000d7a:	06d4      	lsls	r4, r2, #27
 8000d7c:	bf42      	ittt	mi
 8000d7e:	f8d3 40d4 	ldrmi.w	r4, [r3, #212]	@ 0xd4
 8000d82:	f044 0401 	orrmi.w	r4, r4, #1
 8000d86:	f8c3 40d4 	strmi.w	r4, [r3, #212]	@ 0xd4
 8000d8a:	0695      	lsls	r5, r2, #26
 8000d8c:	bf42      	ittt	mi
 8000d8e:	f8d3 40d4 	ldrmi.w	r4, [r3, #212]	@ 0xd4
 8000d92:	f044 0402 	orrmi.w	r4, r4, #2
 8000d96:	f8c3 40d4 	strmi.w	r4, [r3, #212]	@ 0xd4
 8000d9a:	0654      	lsls	r4, r2, #25
 8000d9c:	bf42      	ittt	mi
 8000d9e:	f8d3 40d4 	ldrmi.w	r4, [r3, #212]	@ 0xd4
 8000da2:	f044 0404 	orrmi.w	r4, r4, #4
 8000da6:	f8c3 40d4 	strmi.w	r4, [r3, #212]	@ 0xd4
 8000daa:	09d2      	lsrs	r2, r2, #7
 8000dac:	bf1e      	ittt	ne
 8000dae:	f8d3 20d4 	ldrne.w	r2, [r3, #212]	@ 0xd4
 8000db2:	f042 0208 	orrne.w	r2, r2, #8
 8000db6:	f8c3 20d4 	strne.w	r2, [r3, #212]	@ 0xd4
 8000dba:	7a4a      	ldrb	r2, [r1, #9]
 8000dbc:	07d5      	lsls	r5, r2, #31
 8000dbe:	bf42      	ittt	mi
 8000dc0:	f8d3 40d4 	ldrmi.w	r4, [r3, #212]	@ 0xd4
 8000dc4:	f044 0410 	orrmi.w	r4, r4, #16
 8000dc8:	f8c3 40d4 	strmi.w	r4, [r3, #212]	@ 0xd4
 8000dcc:	0794      	lsls	r4, r2, #30
 8000dce:	bf42      	ittt	mi
 8000dd0:	f8d3 40d4 	ldrmi.w	r4, [r3, #212]	@ 0xd4
 8000dd4:	f044 0420 	orrmi.w	r4, r4, #32
 8000dd8:	f8c3 40d4 	strmi.w	r4, [r3, #212]	@ 0xd4
 8000ddc:	0755      	lsls	r5, r2, #29
 8000dde:	bf42      	ittt	mi
 8000de0:	f8d3 40d4 	ldrmi.w	r4, [r3, #212]	@ 0xd4
 8000de4:	f044 0440 	orrmi.w	r4, r4, #64	@ 0x40
 8000de8:	f8c3 40d4 	strmi.w	r4, [r3, #212]	@ 0xd4
 8000dec:	0714      	lsls	r4, r2, #28
 8000dee:	bf42      	ittt	mi
 8000df0:	f8d3 40d4 	ldrmi.w	r4, [r3, #212]	@ 0xd4
 8000df4:	f044 0480 	orrmi.w	r4, r4, #128	@ 0x80
 8000df8:	f8c3 40d4 	strmi.w	r4, [r3, #212]	@ 0xd4
 8000dfc:	06d5      	lsls	r5, r2, #27
 8000dfe:	bf42      	ittt	mi
 8000e00:	f8d3 40d4 	ldrmi.w	r4, [r3, #212]	@ 0xd4
 8000e04:	f444 7480 	orrmi.w	r4, r4, #256	@ 0x100
 8000e08:	f8c3 40d4 	strmi.w	r4, [r3, #212]	@ 0xd4
 8000e0c:	0694      	lsls	r4, r2, #26
 8000e0e:	bf42      	ittt	mi
 8000e10:	f8d3 40d4 	ldrmi.w	r4, [r3, #212]	@ 0xd4
 8000e14:	f444 7400 	orrmi.w	r4, r4, #512	@ 0x200
 8000e18:	f8c3 40d4 	strmi.w	r4, [r3, #212]	@ 0xd4
 8000e1c:	0655      	lsls	r5, r2, #25
 8000e1e:	bf42      	ittt	mi
 8000e20:	f8d3 40d4 	ldrmi.w	r4, [r3, #212]	@ 0xd4
 8000e24:	f444 6480 	orrmi.w	r4, r4, #1024	@ 0x400
 8000e28:	f8c3 40d4 	strmi.w	r4, [r3, #212]	@ 0xd4
 8000e2c:	09d2      	lsrs	r2, r2, #7
 8000e2e:	bf1e      	ittt	ne
 8000e30:	f8d3 20d4 	ldrne.w	r2, [r3, #212]	@ 0xd4
 8000e34:	f442 6200 	orrne.w	r2, r2, #2048	@ 0x800
 8000e38:	f8c3 20d4 	strne.w	r2, [r3, #212]	@ 0xd4
 8000e3c:	7a8b      	ldrb	r3, [r1, #10]
 8000e3e:	07dc      	lsls	r4, r3, #31
 8000e40:	bf41      	itttt	mi
 8000e42:	4935      	ldrmi	r1, [pc, #212]	@ (8000f18 <DalyBMS_Get_Failure_Codes+0x304>)
 8000e44:	f8d1 20d4 	ldrmi.w	r2, [r1, #212]	@ 0xd4
 8000e48:	f442 5280 	orrmi.w	r2, r2, #4096	@ 0x1000
 8000e4c:	f8c1 20d4 	strmi.w	r2, [r1, #212]	@ 0xd4
 8000e50:	0799      	lsls	r1, r3, #30
 8000e52:	bf41      	itttt	mi
 8000e54:	4930      	ldrmi	r1, [pc, #192]	@ (8000f18 <DalyBMS_Get_Failure_Codes+0x304>)
 8000e56:	f8d1 20d4 	ldrmi.w	r2, [r1, #212]	@ 0xd4
 8000e5a:	f442 5200 	orrmi.w	r2, r2, #8192	@ 0x2000
 8000e5e:	f8c1 20d4 	strmi.w	r2, [r1, #212]	@ 0xd4
 8000e62:	075a      	lsls	r2, r3, #29
 8000e64:	bf41      	itttt	mi
 8000e66:	492c      	ldrmi	r1, [pc, #176]	@ (8000f18 <DalyBMS_Get_Failure_Codes+0x304>)
 8000e68:	f8d1 20d4 	ldrmi.w	r2, [r1, #212]	@ 0xd4
 8000e6c:	f442 4280 	orrmi.w	r2, r2, #16384	@ 0x4000
 8000e70:	f8c1 20d4 	strmi.w	r2, [r1, #212]	@ 0xd4
 8000e74:	071b      	lsls	r3, r3, #28
 8000e76:	bf41      	itttt	mi
 8000e78:	4a27      	ldrmi	r2, [pc, #156]	@ (8000f18 <DalyBMS_Get_Failure_Codes+0x304>)
 8000e7a:	f8d2 30d4 	ldrmi.w	r3, [r2, #212]	@ 0xd4
 8000e7e:	f443 4300 	orrmi.w	r3, r3, #32768	@ 0x8000
 8000e82:	f8c2 30d4 	strmi.w	r3, [r2, #212]	@ 0xd4
 8000e86:	e6cb      	b.n	8000c20 <DalyBMS_Get_Failure_Codes+0xc>
 8000e88:	07d5      	lsls	r5, r2, #31
 8000e8a:	f57f aedd 	bpl.w	8000c48 <DalyBMS_Get_Failure_Codes+0x34>
 8000e8e:	2402      	movs	r4, #2
 8000e90:	e6d7      	b.n	8000c42 <DalyBMS_Get_Failure_Codes+0x2e>
 8000e92:	0755      	lsls	r5, r2, #29
 8000e94:	f57f aee1 	bpl.w	8000c5a <DalyBMS_Get_Failure_Codes+0x46>
 8000e98:	f8d3 40d0 	ldr.w	r4, [r3, #208]	@ 0xd0
 8000e9c:	f044 0408 	orr.w	r4, r4, #8
 8000ea0:	e6d9      	b.n	8000c56 <DalyBMS_Get_Failure_Codes+0x42>
 8000ea2:	06d5      	lsls	r5, r2, #27
 8000ea4:	f57f aee2 	bpl.w	8000c6c <DalyBMS_Get_Failure_Codes+0x58>
 8000ea8:	f8d3 40d0 	ldr.w	r4, [r3, #208]	@ 0xd0
 8000eac:	f044 0420 	orr.w	r4, r4, #32
 8000eb0:	e6da      	b.n	8000c68 <DalyBMS_Get_Failure_Codes+0x54>
 8000eb2:	0992      	lsrs	r2, r2, #6
 8000eb4:	f43f aee3 	beq.w	8000c7e <DalyBMS_Get_Failure_Codes+0x6a>
 8000eb8:	f8d3 20d0 	ldr.w	r2, [r3, #208]	@ 0xd0
 8000ebc:	f042 0280 	orr.w	r2, r2, #128	@ 0x80
 8000ec0:	e6db      	b.n	8000c7a <DalyBMS_Get_Failure_Codes+0x66>
 8000ec2:	07d5      	lsls	r5, r2, #31
 8000ec4:	f57f aee5 	bpl.w	8000c92 <DalyBMS_Get_Failure_Codes+0x7e>
 8000ec8:	f8d3 40d0 	ldr.w	r4, [r3, #208]	@ 0xd0
 8000ecc:	f444 7400 	orr.w	r4, r4, #512	@ 0x200
 8000ed0:	e6dd      	b.n	8000c8e <DalyBMS_Get_Failure_Codes+0x7a>
 8000ed2:	0755      	lsls	r5, r2, #29
 8000ed4:	f57f aee6 	bpl.w	8000ca4 <DalyBMS_Get_Failure_Codes+0x90>
 8000ed8:	f8d3 40d0 	ldr.w	r4, [r3, #208]	@ 0xd0
 8000edc:	f444 6400 	orr.w	r4, r4, #2048	@ 0x800
 8000ee0:	e6de      	b.n	8000ca0 <DalyBMS_Get_Failure_Codes+0x8c>
 8000ee2:	06d5      	lsls	r5, r2, #27
 8000ee4:	f57f aee7 	bpl.w	8000cb6 <DalyBMS_Get_Failure_Codes+0xa2>
 8000ee8:	f8d3 40d0 	ldr.w	r4, [r3, #208]	@ 0xd0
 8000eec:	f444 5400 	orr.w	r4, r4, #8192	@ 0x2000
 8000ef0:	e6df      	b.n	8000cb2 <DalyBMS_Get_Failure_Codes+0x9e>
 8000ef2:	0992      	lsrs	r2, r2, #6
 8000ef4:	f43f aee8 	beq.w	8000cc8 <DalyBMS_Get_Failure_Codes+0xb4>
 8000ef8:	f8d3 20d0 	ldr.w	r2, [r3, #208]	@ 0xd0
 8000efc:	f442 4200 	orr.w	r2, r2, #32768	@ 0x8000
 8000f00:	e6e0      	b.n	8000cc4 <DalyBMS_Get_Failure_Codes+0xb0>
 8000f02:	07d5      	lsls	r5, r2, #31
 8000f04:	f57f aeea 	bpl.w	8000cdc <DalyBMS_Get_Failure_Codes+0xc8>
 8000f08:	f8d3 40d0 	ldr.w	r4, [r3, #208]	@ 0xd0
 8000f0c:	f444 3400 	orr.w	r4, r4, #131072	@ 0x20000
 8000f10:	e6e2      	b.n	8000cd8 <DalyBMS_Get_Failure_Codes+0xc4>
 8000f12:	bf00      	nop
 8000f14:	20000157 	.word	0x20000157
 8000f18:	20000048 	.word	0x20000048
 8000f1c:	0755      	lsls	r5, r2, #29
 8000f1e:	f57f aee6 	bpl.w	8000cee <DalyBMS_Get_Failure_Codes+0xda>
 8000f22:	f8d3 40d0 	ldr.w	r4, [r3, #208]	@ 0xd0
 8000f26:	f444 2400 	orr.w	r4, r4, #524288	@ 0x80000
 8000f2a:	e6de      	b.n	8000cea <DalyBMS_Get_Failure_Codes+0xd6>
 8000f2c:	06d5      	lsls	r5, r2, #27
 8000f2e:	f57f aee7 	bpl.w	8000d00 <DalyBMS_Get_Failure_Codes+0xec>
 8000f32:	f8d3 40d0 	ldr.w	r4, [r3, #208]	@ 0xd0
 8000f36:	f444 1400 	orr.w	r4, r4, #2097152	@ 0x200000
 8000f3a:	e6df      	b.n	8000cfc <DalyBMS_Get_Failure_Codes+0xe8>
 8000f3c:	0992      	lsrs	r2, r2, #6
 8000f3e:	f43f aee8 	beq.w	8000d12 <DalyBMS_Get_Failure_Codes+0xfe>
 8000f42:	f8d3 20d0 	ldr.w	r2, [r3, #208]	@ 0xd0
 8000f46:	f442 0200 	orr.w	r2, r2, #8388608	@ 0x800000
 8000f4a:	e6e0      	b.n	8000d0e <DalyBMS_Get_Failure_Codes+0xfa>
 8000f4c:	07d5      	lsls	r5, r2, #31
 8000f4e:	f57f aeea 	bpl.w	8000d26 <DalyBMS_Get_Failure_Codes+0x112>
 8000f52:	f8d3 40d0 	ldr.w	r4, [r3, #208]	@ 0xd0
 8000f56:	f044 7400 	orr.w	r4, r4, #33554432	@ 0x2000000
 8000f5a:	e6e2      	b.n	8000d22 <DalyBMS_Get_Failure_Codes+0x10e>
 8000f5c:	0755      	lsls	r5, r2, #29
 8000f5e:	f57f aeeb 	bpl.w	8000d38 <DalyBMS_Get_Failure_Codes+0x124>
 8000f62:	f8d3 20d0 	ldr.w	r2, [r3, #208]	@ 0xd0
 8000f66:	f042 6200 	orr.w	r2, r2, #134217728	@ 0x8000000
 8000f6a:	e6e3      	b.n	8000d34 <DalyBMS_Get_Failure_Codes+0x120>

08000f6c <DalyBMS_Get_Voltage_Thresholds>:
 8000f6c:	b508      	push	{r3, lr}
 8000f6e:	2059      	movs	r0, #89	@ 0x59
 8000f70:	f7ff fc56 	bl	8000820 <DalyBMS_Request>
 8000f74:	b908      	cbnz	r0, 8000f7a <DalyBMS_Get_Voltage_Thresholds+0xe>
 8000f76:	2000      	movs	r0, #0
 8000f78:	bd08      	pop	{r3, pc}
 8000f7a:	2001      	movs	r0, #1
 8000f7c:	f7ff fc7a 	bl	8000874 <DalyBMS_Recive>
 8000f80:	2800      	cmp	r0, #0
 8000f82:	d0f8      	beq.n	8000f76 <DalyBMS_Get_Voltage_Thresholds+0xa>
 8000f84:	4a07      	ldr	r2, [pc, #28]	@ (8000fa4 <DalyBMS_Get_Voltage_Thresholds+0x38>)
 8000f86:	4b08      	ldr	r3, [pc, #32]	@ (8000fa8 <DalyBMS_Get_Voltage_Thresholds+0x3c>)
 8000f88:	8891      	ldrh	r1, [r2, #4]
 8000f8a:	ba49      	rev16	r1, r1
 8000f8c:	8019      	strh	r1, [r3, #0]
 8000f8e:	88d1      	ldrh	r1, [r2, #6]
 8000f90:	ba49      	rev16	r1, r1
 8000f92:	8099      	strh	r1, [r3, #4]
 8000f94:	8911      	ldrh	r1, [r2, #8]
 8000f96:	8952      	ldrh	r2, [r2, #10]
 8000f98:	ba49      	rev16	r1, r1
 8000f9a:	ba52      	rev16	r2, r2
 8000f9c:	8059      	strh	r1, [r3, #2]
 8000f9e:	80da      	strh	r2, [r3, #6]
 8000fa0:	e7ea      	b.n	8000f78 <DalyBMS_Get_Voltage_Thresholds+0xc>
 8000fa2:	bf00      	nop
 8000fa4:	20000157 	.word	0x20000157
 8000fa8:	20000048 	.word	0x20000048

08000fac <DalyBMS_Get_Pack_Thresholds>:
 8000fac:	b508      	push	{r3, lr}
 8000fae:	205a      	movs	r0, #90	@ 0x5a
 8000fb0:	f7ff fc36 	bl	8000820 <DalyBMS_Request>
 8000fb4:	b908      	cbnz	r0, 8000fba <DalyBMS_Get_Pack_Thresholds+0xe>
 8000fb6:	2000      	movs	r0, #0
 8000fb8:	bd08      	pop	{r3, pc}
 8000fba:	2001      	movs	r0, #1
 8000fbc:	f7ff fc5a 	bl	8000874 <DalyBMS_Recive>
 8000fc0:	2800      	cmp	r0, #0
 8000fc2:	d0f8      	beq.n	8000fb6 <DalyBMS_Get_Pack_Thresholds+0xa>
 8000fc4:	4a07      	ldr	r2, [pc, #28]	@ (8000fe4 <DalyBMS_Get_Pack_Thresholds+0x38>)
 8000fc6:	4b08      	ldr	r3, [pc, #32]	@ (8000fe8 <DalyBMS_Get_Pack_Thresholds+0x3c>)
 8000fc8:	8891      	ldrh	r1, [r2, #4]
 8000fca:	ba49      	rev16	r1, r1
 8000fcc:	8119      	strh	r1, [r3, #8]
 8000fce:	88d1      	ldrh	r1, [r2, #6]
 8000fd0:	ba49      	rev16	r1, r1
 8000fd2:	8199      	strh	r1, [r3, #12]
 8000fd4:	8911      	ldrh	r1, [r2, #8]
 8000fd6:	8952      	ldrh	r2, [r2, #10]
 8000fd8:	ba49      	rev16	r1, r1
 8000fda:	ba52      	rev16	r2, r2
 8000fdc:	8159      	strh	r1, [r3, #10]
 8000fde:	81da      	strh	r2, [r3, #14]
 8000fe0:	e7ea      	b.n	8000fb8 <DalyBMS_Get_Pack_Thresholds+0xc>
 8000fe2:	bf00      	nop
 8000fe4:	20000157 	.word	0x20000157
 8000fe8:	20000048 	.word	0x20000048

08000fec <DalyBMS_On_Request_Done>:
 8000fec:	4770      	bx	lr
	...

08000ff0 <DalyBMS_Clear_Data>:
 8000ff0:	22d8      	movs	r2, #216	@ 0xd8
 8000ff2:	2100      	movs	r1, #0
 8000ff4:	4801      	ldr	r0, [pc, #4]	@ (8000ffc <DalyBMS_Clear_Data+0xc>)
 8000ff6:	f004 bb49 	b.w	800568c <memset>
 8000ffa:	bf00      	nop
 8000ffc:	20000048 	.word	0x20000048

08001000 <DalyBMS_Clear_Get>:
 8001000:	2203      	movs	r2, #3
 8001002:	4b01      	ldr	r3, [pc, #4]	@ (8001008 <DalyBMS_Clear_Get+0x8>)
 8001004:	779a      	strb	r2, [r3, #30]
 8001006:	4770      	bx	lr
 8001008:	20000048 	.word	0x20000048

0800100c <DalyBMS_Set_Callback>:
 800100c:	4b01      	ldr	r3, [pc, #4]	@ (8001014 <DalyBMS_Set_Callback+0x8>)
 800100e:	6018      	str	r0, [r3, #0]
 8001010:	4770      	bx	lr
 8001012:	bf00      	nop
 8001014:	20000198 	.word	0x20000198

08001018 <vApplicationGetIdleTaskMemory>:
 8001018:	4b03      	ldr	r3, [pc, #12]	@ (8001028 <vApplicationGetIdleTaskMemory+0x10>)
 800101a:	6003      	str	r3, [r0, #0]
 800101c:	4b03      	ldr	r3, [pc, #12]	@ (800102c <vApplicationGetIdleTaskMemory+0x14>)
 800101e:	600b      	str	r3, [r1, #0]
 8001020:	2380      	movs	r3, #128	@ 0x80
 8001022:	6013      	str	r3, [r2, #0]
 8001024:	4770      	bx	lr
 8001026:	bf00      	nop
 8001028:	2000039c 	.word	0x2000039c
 800102c:	2000019c 	.word	0x2000019c

08001030 <INA219_ReadRegister>:
 8001030:	b570      	push	{r4, r5, r6, lr}
 8001032:	2664      	movs	r6, #100	@ 0x64
 8001034:	b086      	sub	sp, #24
 8001036:	9600      	str	r6, [sp, #0]
 8001038:	4604      	mov	r4, r0
 800103a:	4615      	mov	r5, r2
 800103c:	f88d 100f 	strb.w	r1, [sp, #15]
 8001040:	2301      	movs	r3, #1
 8001042:	7901      	ldrb	r1, [r0, #4]
 8001044:	f10d 020f 	add.w	r2, sp, #15
 8001048:	6800      	ldr	r0, [r0, #0]
 800104a:	f001 fe15 	bl	8002c78 <HAL_I2C_Master_Transmit>
 800104e:	b958      	cbnz	r0, 8001068 <INA219_ReadRegister+0x38>
 8001050:	9600      	str	r6, [sp, #0]
 8001052:	2302      	movs	r3, #2
 8001054:	7921      	ldrb	r1, [r4, #4]
 8001056:	6820      	ldr	r0, [r4, #0]
 8001058:	aa05      	add	r2, sp, #20
 800105a:	f001 fee7 	bl	8002e2c <HAL_I2C_Master_Receive>
 800105e:	b918      	cbnz	r0, 8001068 <INA219_ReadRegister+0x38>
 8001060:	f8bd 3014 	ldrh.w	r3, [sp, #20]
 8001064:	ba5b      	rev16	r3, r3
 8001066:	802b      	strh	r3, [r5, #0]
 8001068:	b006      	add	sp, #24
 800106a:	bd70      	pop	{r4, r5, r6, pc}

0800106c <INA219_WriteRegister.isra.0>:
 800106c:	b51f      	push	{r0, r1, r2, r3, r4, lr}
 800106e:	0a13      	lsrs	r3, r2, #8
 8001070:	f88d 300d 	strb.w	r3, [sp, #13]
 8001074:	2364      	movs	r3, #100	@ 0x64
 8001076:	9300      	str	r3, [sp, #0]
 8001078:	f88d 100c 	strb.w	r1, [sp, #12]
 800107c:	f88d 200e 	strb.w	r2, [sp, #14]
 8001080:	7901      	ldrb	r1, [r0, #4]
 8001082:	2303      	movs	r3, #3
 8001084:	aa03      	add	r2, sp, #12
 8001086:	6800      	ldr	r0, [r0, #0]
 8001088:	f001 fdf6 	bl	8002c78 <HAL_I2C_Master_Transmit>
 800108c:	b005      	add	sp, #20
 800108e:	f85d fb04 	ldr.w	pc, [sp], #4
	...

08001094 <INA219_Init>:
 8001094:	b570      	push	{r4, r5, r6, lr}
 8001096:	4604      	mov	r4, r0
 8001098:	7102      	strb	r2, [r0, #4]
 800109a:	6143      	str	r3, [r0, #20]
 800109c:	6001      	str	r1, [r0, #0]
 800109e:	9804      	ldr	r0, [sp, #16]
 80010a0:	4911      	ldr	r1, [pc, #68]	@ (80010e8 <INA219_Init+0x54>)
 80010a2:	461d      	mov	r5, r3
 80010a4:	f7ff fa16 	bl	80004d4 <__aeabi_fdiv>
 80010a8:	4629      	mov	r1, r5
 80010aa:	60a0      	str	r0, [r4, #8]
 80010ac:	4606      	mov	r6, r0
 80010ae:	f7ff f95d 	bl	800036c <__aeabi_fmul>
 80010b2:	4601      	mov	r1, r0
 80010b4:	480d      	ldr	r0, [pc, #52]	@ (80010ec <INA219_Init+0x58>)
 80010b6:	f7ff fa0d 	bl	80004d4 <__aeabi_fdiv>
 80010ba:	f7ff fb1d 	bl	80006f8 <__aeabi_f2uiz>
 80010be:	b285      	uxth	r5, r0
 80010c0:	490b      	ldr	r1, [pc, #44]	@ (80010f0 <INA219_Init+0x5c>)
 80010c2:	4630      	mov	r0, r6
 80010c4:	8225      	strh	r5, [r4, #16]
 80010c6:	f7ff f951 	bl	800036c <__aeabi_fmul>
 80010ca:	462a      	mov	r2, r5
 80010cc:	60e0      	str	r0, [r4, #12]
 80010ce:	2105      	movs	r1, #5
 80010d0:	4620      	mov	r0, r4
 80010d2:	f7ff ffcb 	bl	800106c <INA219_WriteRegister.isra.0>
 80010d6:	4620      	mov	r0, r4
 80010d8:	e8bd 4070 	ldmia.w	sp!, {r4, r5, r6, lr}
 80010dc:	f643 129f 	movw	r2, #14751	@ 0x399f
 80010e0:	2100      	movs	r1, #0
 80010e2:	f7ff bfc3 	b.w	800106c <INA219_WriteRegister.isra.0>
 80010e6:	bf00      	nop
 80010e8:	46fffe00 	.word	0x46fffe00
 80010ec:	3d27c5ac 	.word	0x3d27c5ac
 80010f0:	41a00000 	.word	0x41a00000

080010f4 <INA219_Read_Bus_Voltage>:
 80010f4:	b537      	push	{r0, r1, r2, r4, r5, lr}
 80010f6:	460d      	mov	r5, r1
 80010f8:	f10d 0206 	add.w	r2, sp, #6
 80010fc:	2102      	movs	r1, #2
 80010fe:	f7ff ff97 	bl	8001030 <INA219_ReadRegister>
 8001102:	4604      	mov	r4, r0
 8001104:	b960      	cbnz	r0, 8001120 <INA219_Read_Bus_Voltage+0x2c>
 8001106:	f8bd 0006 	ldrh.w	r0, [sp, #6]
 800110a:	08c0      	lsrs	r0, r0, #3
 800110c:	f7ff f8da 	bl	80002c4 <__aeabi_i2f>
 8001110:	f04f 4181 	mov.w	r1, #1082130432	@ 0x40800000
 8001114:	f7ff f92a 	bl	800036c <__aeabi_fmul>
 8001118:	4903      	ldr	r1, [pc, #12]	@ (8001128 <INA219_Read_Bus_Voltage+0x34>)
 800111a:	f7ff f9db 	bl	80004d4 <__aeabi_fdiv>
 800111e:	6028      	str	r0, [r5, #0]
 8001120:	4620      	mov	r0, r4
 8001122:	b003      	add	sp, #12
 8001124:	bd30      	pop	{r4, r5, pc}
 8001126:	bf00      	nop
 8001128:	447a0000 	.word	0x447a0000

0800112c <INA219_Read_Current>:
 800112c:	b573      	push	{r0, r1, r4, r5, r6, lr}
 800112e:	4604      	mov	r4, r0
 8001130:	8a02      	ldrh	r2, [r0, #16]
 8001132:	460e      	mov	r6, r1
 8001134:	2105      	movs	r1, #5
 8001136:	f7ff ff99 	bl	800106c <INA219_WriteRegister.isra.0>
 800113a:	2104      	movs	r1, #4
 800113c:	4620      	mov	r0, r4
 800113e:	f10d 0206 	add.w	r2, sp, #6
 8001142:	f7ff ff75 	bl	8001030 <INA219_ReadRegister>
 8001146:	4605      	mov	r5, r0
 8001148:	b938      	cbnz	r0, 800115a <INA219_Read_Current+0x2e>
 800114a:	f9bd 0006 	ldrsh.w	r0, [sp, #6]
 800114e:	f7ff f8b9 	bl	80002c4 <__aeabi_i2f>
 8001152:	68a1      	ldr	r1, [r4, #8]
 8001154:	f7ff f90a 	bl	800036c <__aeabi_fmul>
 8001158:	6030      	str	r0, [r6, #0]
 800115a:	4628      	mov	r0, r5
 800115c:	b002      	add	sp, #8
 800115e:	bd70      	pop	{r4, r5, r6, pc}

08001160 <INA219_Read_Power>:
 8001160:	b573      	push	{r0, r1, r4, r5, r6, lr}
 8001162:	4604      	mov	r4, r0
 8001164:	8a02      	ldrh	r2, [r0, #16]
 8001166:	460e      	mov	r6, r1
 8001168:	2105      	movs	r1, #5
 800116a:	f7ff ff7f 	bl	800106c <INA219_WriteRegister.isra.0>
 800116e:	2103      	movs	r1, #3
 8001170:	4620      	mov	r0, r4
 8001172:	f10d 0206 	add.w	r2, sp, #6
 8001176:	f7ff ff5b 	bl	8001030 <INA219_ReadRegister>
 800117a:	4605      	mov	r5, r0
 800117c:	b938      	cbnz	r0, 800118e <INA219_Read_Power+0x2e>
 800117e:	f8bd 0006 	ldrh.w	r0, [sp, #6]
 8001182:	f7ff f89f 	bl	80002c4 <__aeabi_i2f>
 8001186:	68e1      	ldr	r1, [r4, #12]
 8001188:	f7ff f8f0 	bl	800036c <__aeabi_fmul>
 800118c:	6030      	str	r0, [r6, #0]
 800118e:	4628      	mov	r0, r5
 8001190:	b002      	add	sp, #8
 8001192:	bd70      	pop	{r4, r5, r6, pc}

08001194 <StartDefaultTask>:
 8001194:	b580      	push	{r7, lr}
 8001196:	4d1f      	ldr	r5, [pc, #124]	@ (8001214 <StartDefaultTask+0x80>)
 8001198:	4f1f      	ldr	r7, [pc, #124]	@ (8001218 <StartDefaultTask+0x84>)
 800119a:	4e20      	ldr	r6, [pc, #128]	@ (800121c <StartDefaultTask+0x88>)
 800119c:	8a38      	ldrh	r0, [r7, #16]
 800119e:	f7ff f891 	bl	80002c4 <__aeabi_i2f>
 80011a2:	4c1f      	ldr	r4, [pc, #124]	@ (8001220 <StartDefaultTask+0x8c>)
 80011a4:	4b1f      	ldr	r3, [pc, #124]	@ (8001224 <StartDefaultTask+0x90>)
 80011a6:	6819      	ldr	r1, [r3, #0]
 80011a8:	7823      	ldrb	r3, [r4, #0]
 80011aa:	b9eb      	cbnz	r3, 80011e8 <StartDefaultTask+0x54>
 80011ac:	f7ff fa9a 	bl	80006e4 <__aeabi_fcmpgt>
 80011b0:	b180      	cbz	r0, 80011d4 <StartDefaultTask+0x40>
 80011b2:	2201      	movs	r2, #1
 80011b4:	2180      	movs	r1, #128	@ 0x80
 80011b6:	4628      	mov	r0, r5
 80011b8:	f001 fb86 	bl	80028c8 <HAL_GPIO_WritePin>
 80011bc:	2201      	movs	r2, #1
 80011be:	481a      	ldr	r0, [pc, #104]	@ (8001228 <StartDefaultTask+0x94>)
 80011c0:	4611      	mov	r1, r2
 80011c2:	f001 fb81 	bl	80028c8 <HAL_GPIO_WritePin>
 80011c6:	2201      	movs	r2, #1
 80011c8:	2102      	movs	r1, #2
 80011ca:	4817      	ldr	r0, [pc, #92]	@ (8001228 <StartDefaultTask+0x94>)
 80011cc:	f001 fb7c 	bl	80028c8 <HAL_GPIO_WritePin>
 80011d0:	2301      	movs	r3, #1
 80011d2:	7023      	strb	r3, [r4, #0]
 80011d4:	4630      	mov	r0, r6
 80011d6:	f44f 5100 	mov.w	r1, #8192	@ 0x2000
 80011da:	f001 fb7a 	bl	80028d2 <HAL_GPIO_TogglePin>
 80011de:	f44f 70fa 	mov.w	r0, #500	@ 0x1f4
 80011e2:	f003 fc56 	bl	8004a92 <osDelay>
 80011e6:	e7d9      	b.n	800119c <StartDefaultTask+0x8>
 80011e8:	f7ff fa5e 	bl	80006a8 <__aeabi_fcmplt>
 80011ec:	2800      	cmp	r0, #0
 80011ee:	d0f1      	beq.n	80011d4 <StartDefaultTask+0x40>
 80011f0:	2200      	movs	r2, #0
 80011f2:	2180      	movs	r1, #128	@ 0x80
 80011f4:	4628      	mov	r0, r5
 80011f6:	f001 fb67 	bl	80028c8 <HAL_GPIO_WritePin>
 80011fa:	2200      	movs	r2, #0
 80011fc:	2101      	movs	r1, #1
 80011fe:	480a      	ldr	r0, [pc, #40]	@ (8001228 <StartDefaultTask+0x94>)
 8001200:	f001 fb62 	bl	80028c8 <HAL_GPIO_WritePin>
 8001204:	2200      	movs	r2, #0
 8001206:	2102      	movs	r1, #2
 8001208:	4807      	ldr	r0, [pc, #28]	@ (8001228 <StartDefaultTask+0x94>)
 800120a:	f001 fb5d 	bl	80028c8 <HAL_GPIO_WritePin>
 800120e:	2300      	movs	r3, #0
 8001210:	e7df      	b.n	80011d2 <StartDefaultTask+0x3e>
 8001212:	bf00      	nop
 8001214:	40010800 	.word	0x40010800
 8001218:	20000048 	.word	0x20000048
 800121c:	40011000 	.word	0x40011000
 8001220:	200003f0 	.word	0x200003f0
 8001224:	20000000 	.word	0x20000000
 8001228:	40010c00 	.word	0x40010c00

0800122c <StartBMSTask>:
 800122c:	220d      	movs	r2, #13
 800122e:	2100      	movs	r1, #0
 8001230:	b580      	push	{r7, lr}
 8001232:	4842      	ldr	r0, [pc, #264]	@ (800133c <StartBMSTask+0x110>)
 8001234:	f004 fa2a 	bl	800568c <memset>
 8001238:	4841      	ldr	r0, [pc, #260]	@ (8001340 <StartBMSTask+0x114>)
 800123a:	f7ff fee1 	bl	8001000 <DalyBMS_Clear_Get>
 800123e:	4c41      	ldr	r4, [pc, #260]	@ (8001344 <StartBMSTask+0x118>)
 8001240:	4d41      	ldr	r5, [pc, #260]	@ (8001348 <StartBMSTask+0x11c>)
 8001242:	7823      	ldrb	r3, [r4, #0]
 8001244:	2b0a      	cmp	r3, #10
 8001246:	d81a      	bhi.n	800127e <StartBMSTask+0x52>
 8001248:	e8df f003 	tbb	[pc, r3]
 800124c:	403d3506 	.word	0x403d3506
 8001250:	4c494643 	.word	0x4c494643
 8001254:	5d4f      	.short	0x5d4f
 8001256:	69          	.byte	0x69
 8001257:	00          	.byte	0x00
 8001258:	f7ff fb4e 	bl	80008f8 <DalyBMS_Get_Pack_Data>
 800125c:	4f3b      	ldr	r7, [pc, #236]	@ (800134c <StartBMSTask+0x120>)
 800125e:	4606      	mov	r6, r0
 8001260:	b188      	cbz	r0, 8001286 <StartBMSTask+0x5a>
 8001262:	2201      	movs	r2, #1
 8001264:	4628      	mov	r0, r5
 8001266:	4611      	mov	r1, r2
 8001268:	f001 fb2e 	bl	80028c8 <HAL_GPIO_WritePin>
 800126c:	2201      	movs	r2, #1
 800126e:	4b34      	ldr	r3, [pc, #208]	@ (8001340 <StartBMSTask+0x114>)
 8001270:	f883 20cb 	strb.w	r2, [r3, #203]	@ 0xcb
 8001274:	2300      	movs	r3, #0
 8001276:	703b      	strb	r3, [r7, #0]
 8001278:	7823      	ldrb	r3, [r4, #0]
 800127a:	4413      	add	r3, r2
 800127c:	7023      	strb	r3, [r4, #0]
 800127e:	2032      	movs	r0, #50	@ 0x32
 8001280:	f003 fc07 	bl	8004a92 <osDelay>
 8001284:	e7dd      	b.n	8001242 <StartBMSTask+0x16>
 8001286:	4602      	mov	r2, r0
 8001288:	2101      	movs	r1, #1
 800128a:	4628      	mov	r0, r5
 800128c:	f001 fb1c 	bl	80028c8 <HAL_GPIO_WritePin>
 8001290:	783b      	ldrb	r3, [r7, #0]
 8001292:	7026      	strb	r6, [r4, #0]
 8001294:	2b09      	cmp	r3, #9
 8001296:	d802      	bhi.n	800129e <StartBMSTask+0x72>
 8001298:	3301      	adds	r3, #1
 800129a:	703b      	strb	r3, [r7, #0]
 800129c:	e7ef      	b.n	800127e <StartBMSTask+0x52>
 800129e:	4b28      	ldr	r3, [pc, #160]	@ (8001340 <StartBMSTask+0x114>)
 80012a0:	f883 60cb 	strb.w	r6, [r3, #203]	@ 0xcb
 80012a4:	f7ff fea4 	bl	8000ff0 <DalyBMS_Clear_Data>
 80012a8:	703e      	strb	r6, [r7, #0]
 80012aa:	4b29      	ldr	r3, [pc, #164]	@ (8001350 <StartBMSTask+0x124>)
 80012ac:	681b      	ldr	r3, [r3, #0]
 80012ae:	2b00      	cmp	r3, #0
 80012b0:	d0e5      	beq.n	800127e <StartBMSTask+0x52>
 80012b2:	4798      	blx	r3
 80012b4:	e7e3      	b.n	800127e <StartBMSTask+0x52>
 80012b6:	f7ff fb5d 	bl	8000974 <DalyBMS_Get_Min_Max_Cell_Voltage>
 80012ba:	b110      	cbz	r0, 80012c2 <StartBMSTask+0x96>
 80012bc:	7820      	ldrb	r0, [r4, #0]
 80012be:	3001      	adds	r0, #1
 80012c0:	b2c0      	uxtb	r0, r0
 80012c2:	7020      	strb	r0, [r4, #0]
 80012c4:	e7db      	b.n	800127e <StartBMSTask+0x52>
 80012c6:	f7ff fb75 	bl	80009b4 <DalyBMS_Get_Pack_Temperature>
 80012ca:	e7f6      	b.n	80012ba <StartBMSTask+0x8e>
 80012cc:	f7ff fb8e 	bl	80009ec <DalyBMS_Get_Charge_Discharge_Status>
 80012d0:	e7f3      	b.n	80012ba <StartBMSTask+0x8e>
 80012d2:	f7ff fbb7 	bl	8000a44 <DalyBMS_Get_Status_Info>
 80012d6:	e7f0      	b.n	80012ba <StartBMSTask+0x8e>
 80012d8:	f7ff fbdc 	bl	8000a94 <DalyBMS_Get_Cell_Voltages>
 80012dc:	e7ed      	b.n	80012ba <StartBMSTask+0x8e>
 80012de:	f7ff fc2f 	bl	8000b40 <DalyBMS_Get_Cell_Temperatures>
 80012e2:	e7ea      	b.n	80012ba <StartBMSTask+0x8e>
 80012e4:	f7ff fc52 	bl	8000b8c <DalyBMS_Get_Cell_Balance_State>
 80012e8:	e7e7      	b.n	80012ba <StartBMSTask+0x8e>
 80012ea:	f7ff fc93 	bl	8000c14 <DalyBMS_Get_Failure_Codes>
 80012ee:	b110      	cbz	r0, 80012f6 <StartBMSTask+0xca>
 80012f0:	7820      	ldrb	r0, [r4, #0]
 80012f2:	3001      	adds	r0, #1
 80012f4:	b2c0      	uxtb	r0, r0
 80012f6:	4b17      	ldr	r3, [pc, #92]	@ (8001354 <StartBMSTask+0x128>)
 80012f8:	7020      	strb	r0, [r4, #0]
 80012fa:	781b      	ldrb	r3, [r3, #0]
 80012fc:	2b00      	cmp	r3, #0
 80012fe:	d0d4      	beq.n	80012aa <StartBMSTask+0x7e>
 8001300:	2300      	movs	r3, #0
 8001302:	7023      	strb	r3, [r4, #0]
 8001304:	e7d1      	b.n	80012aa <StartBMSTask+0x7e>
 8001306:	4b13      	ldr	r3, [pc, #76]	@ (8001354 <StartBMSTask+0x128>)
 8001308:	781b      	ldrb	r3, [r3, #0]
 800130a:	2b00      	cmp	r3, #0
 800130c:	d1cd      	bne.n	80012aa <StartBMSTask+0x7e>
 800130e:	f7ff fe2d 	bl	8000f6c <DalyBMS_Get_Voltage_Thresholds>
 8001312:	b110      	cbz	r0, 800131a <StartBMSTask+0xee>
 8001314:	7820      	ldrb	r0, [r4, #0]
 8001316:	3001      	adds	r0, #1
 8001318:	b2c0      	uxtb	r0, r0
 800131a:	7020      	strb	r0, [r4, #0]
 800131c:	e7c5      	b.n	80012aa <StartBMSTask+0x7e>
 800131e:	4e0d      	ldr	r6, [pc, #52]	@ (8001354 <StartBMSTask+0x128>)
 8001320:	7833      	ldrb	r3, [r6, #0]
 8001322:	b90b      	cbnz	r3, 8001328 <StartBMSTask+0xfc>
 8001324:	f7ff fe42 	bl	8000fac <DalyBMS_Get_Pack_Thresholds>
 8001328:	2300      	movs	r3, #0
 800132a:	7023      	strb	r3, [r4, #0]
 800132c:	4b08      	ldr	r3, [pc, #32]	@ (8001350 <StartBMSTask+0x124>)
 800132e:	681b      	ldr	r3, [r3, #0]
 8001330:	b103      	cbz	r3, 8001334 <StartBMSTask+0x108>
 8001332:	4798      	blx	r3
 8001334:	2301      	movs	r3, #1
 8001336:	7033      	strb	r3, [r6, #0]
 8001338:	e7a1      	b.n	800127e <StartBMSTask+0x52>
 800133a:	bf00      	nop
 800133c:	2000018b 	.word	0x2000018b
 8001340:	20000048 	.word	0x20000048
 8001344:	20000121 	.word	0x20000121
 8001348:	40010800 	.word	0x40010800
 800134c:	20000122 	.word	0x20000122
 8001350:	20000198 	.word	0x20000198
 8001354:	20000120 	.word	0x20000120

08001358 <StartSK60xTask>:
 8001358:	b508      	push	{r3, lr}
 800135a:	f7ff fa25 	bl	80007a8 <ChargeControl_Process>
 800135e:	2064      	movs	r0, #100	@ 0x64
 8001360:	f003 fb97 	bl	8004a92 <osDelay>
 8001364:	e7f9      	b.n	800135a <StartSK60xTask+0x2>
	...

08001368 <StartModbusTask>:
 8001368:	f242 7510 	movw	r5, #10000	@ 0x2710
 800136c:	b508      	push	{r3, lr}
 800136e:	4c0a      	ldr	r4, [pc, #40]	@ (8001398 <StartModbusTask+0x30>)
 8001370:	f000 fe4a 	bl	8002008 <ModbusRTU_Process>
 8001374:	f001 f8e6 	bl	8002544 <HAL_GetTick>
 8001378:	f8d4 320c 	ldr.w	r3, [r4, #524]	@ 0x20c
 800137c:	1ac0      	subs	r0, r0, r3
 800137e:	42a8      	cmp	r0, r5
 8001380:	d905      	bls.n	800138e <StartModbusTask+0x26>
 8001382:	f000 fe13 	bl	8001fac <ModbusRTU_Reset>
 8001386:	f001 f8dd 	bl	8002544 <HAL_GetTick>
 800138a:	f8c4 020c 	str.w	r0, [r4, #524]	@ 0x20c
 800138e:	200a      	movs	r0, #10
 8001390:	f003 fb7f 	bl	8004a92 <osDelay>
 8001394:	e7ec      	b.n	8001370 <StartModbusTask+0x8>
 8001396:	bf00      	nop
 8001398:	2000057c 	.word	0x2000057c

0800139c <SystemClock_Config>:
 800139c:	b510      	push	{r4, lr}
 800139e:	b090      	sub	sp, #64	@ 0x40
 80013a0:	2214      	movs	r2, #20
 80013a2:	2100      	movs	r1, #0
 80013a4:	a808      	add	r0, sp, #32
 80013a6:	f004 f971 	bl	800568c <memset>
 80013aa:	2214      	movs	r2, #20
 80013ac:	2100      	movs	r1, #0
 80013ae:	a801      	add	r0, sp, #4
 80013b0:	f004 f96c 	bl	800568c <memset>
 80013b4:	2402      	movs	r4, #2
 80013b6:	f44f 3380 	mov.w	r3, #65536	@ 0x10000
 80013ba:	2201      	movs	r2, #1
 80013bc:	e9cd 430d 	strd	r4, r3, [sp, #52]	@ 0x34
 80013c0:	e9cd 2306 	strd	r2, r3, [sp, #24]
 80013c4:	f44f 13e0 	mov.w	r3, #1835008	@ 0x1c0000
 80013c8:	a806      	add	r0, sp, #24
 80013ca:	920a      	str	r2, [sp, #40]	@ 0x28
 80013cc:	930f      	str	r3, [sp, #60]	@ 0x3c
 80013ce:	f002 fc9b 	bl	8003d08 <HAL_RCC_OscConfig>
 80013d2:	b108      	cbz	r0, 80013d8 <SystemClock_Config+0x3c>
 80013d4:	b672      	cpsid	i
 80013d6:	e7fe      	b.n	80013d6 <SystemClock_Config+0x3a>
 80013d8:	230f      	movs	r3, #15
 80013da:	e9cd 3401 	strd	r3, r4, [sp, #4]
 80013de:	f44f 6380 	mov.w	r3, #1024	@ 0x400
 80013e2:	9003      	str	r0, [sp, #12]
 80013e4:	e9cd 3004 	strd	r3, r0, [sp, #16]
 80013e8:	4621      	mov	r1, r4
 80013ea:	a801      	add	r0, sp, #4
 80013ec:	f002 fe4e 	bl	800408c <HAL_RCC_ClockConfig>
 80013f0:	b108      	cbz	r0, 80013f6 <SystemClock_Config+0x5a>
 80013f2:	b672      	cpsid	i
 80013f4:	e7fe      	b.n	80013f4 <SystemClock_Config+0x58>
 80013f6:	b010      	add	sp, #64	@ 0x40
 80013f8:	bd10      	pop	{r4, pc}
	...

080013fc <main>:
 80013fc:	b580      	push	{r7, lr}
 80013fe:	b0a2      	sub	sp, #136	@ 0x88
 8001400:	f001 f882 	bl	8002508 <HAL_Init>
 8001404:	f7ff ffca 	bl	800139c <SystemClock_Config>
 8001408:	2210      	movs	r2, #16
 800140a:	2100      	movs	r1, #0
 800140c:	a81b      	add	r0, sp, #108	@ 0x6c
 800140e:	f004 f93d 	bl	800568c <memset>
 8001412:	4b83      	ldr	r3, [pc, #524]	@ (8001620 <main+0x224>)
 8001414:	f44f 4160 	mov.w	r1, #57344	@ 0xe000
 8001418:	699a      	ldr	r2, [r3, #24]
 800141a:	4882      	ldr	r0, [pc, #520]	@ (8001624 <main+0x228>)
 800141c:	f042 0210 	orr.w	r2, r2, #16
 8001420:	619a      	str	r2, [r3, #24]
 8001422:	699a      	ldr	r2, [r3, #24]
 8001424:	2400      	movs	r4, #0
 8001426:	f002 0210 	and.w	r2, r2, #16
 800142a:	9202      	str	r2, [sp, #8]
 800142c:	9a02      	ldr	r2, [sp, #8]
 800142e:	699a      	ldr	r2, [r3, #24]
 8001430:	2601      	movs	r6, #1
 8001432:	f042 0220 	orr.w	r2, r2, #32
 8001436:	619a      	str	r2, [r3, #24]
 8001438:	699a      	ldr	r2, [r3, #24]
 800143a:	2502      	movs	r5, #2
 800143c:	f002 0220 	and.w	r2, r2, #32
 8001440:	9203      	str	r2, [sp, #12]
 8001442:	9a03      	ldr	r2, [sp, #12]
 8001444:	699a      	ldr	r2, [r3, #24]
 8001446:	f042 0204 	orr.w	r2, r2, #4
 800144a:	619a      	str	r2, [r3, #24]
 800144c:	699a      	ldr	r2, [r3, #24]
 800144e:	f002 0204 	and.w	r2, r2, #4
 8001452:	9204      	str	r2, [sp, #16]
 8001454:	9a04      	ldr	r2, [sp, #16]
 8001456:	699a      	ldr	r2, [r3, #24]
 8001458:	f042 0208 	orr.w	r2, r2, #8
 800145c:	619a      	str	r2, [r3, #24]
 800145e:	699b      	ldr	r3, [r3, #24]
 8001460:	2200      	movs	r2, #0
 8001462:	f003 0308 	and.w	r3, r3, #8
 8001466:	9305      	str	r3, [sp, #20]
 8001468:	9b05      	ldr	r3, [sp, #20]
 800146a:	f001 fa2d 	bl	80028c8 <HAL_GPIO_WritePin>
 800146e:	2200      	movs	r2, #0
 8001470:	21c3      	movs	r1, #195	@ 0xc3
 8001472:	486d      	ldr	r0, [pc, #436]	@ (8001628 <main+0x22c>)
 8001474:	f001 fa28 	bl	80028c8 <HAL_GPIO_WritePin>
 8001478:	2200      	movs	r2, #0
 800147a:	2123      	movs	r1, #35	@ 0x23
 800147c:	486b      	ldr	r0, [pc, #428]	@ (800162c <main+0x230>)
 800147e:	f001 fa23 	bl	80028c8 <HAL_GPIO_WritePin>
 8001482:	f44f 4360 	mov.w	r3, #57344	@ 0xe000
 8001486:	4867      	ldr	r0, [pc, #412]	@ (8001624 <main+0x228>)
 8001488:	a91b      	add	r1, sp, #108	@ 0x6c
 800148a:	e9cd 361b 	strd	r3, r6, [sp, #108]	@ 0x6c
 800148e:	e9cd 451d 	strd	r4, r5, [sp, #116]	@ 0x74
 8001492:	f001 f93f 	bl	8002714 <HAL_GPIO_Init>
 8001496:	23c3      	movs	r3, #195	@ 0xc3
 8001498:	4863      	ldr	r0, [pc, #396]	@ (8001628 <main+0x22c>)
 800149a:	a91b      	add	r1, sp, #108	@ 0x6c
 800149c:	e9cd 361b 	strd	r3, r6, [sp, #108]	@ 0x6c
 80014a0:	e9cd 451d 	strd	r4, r5, [sp, #116]	@ 0x74
 80014a4:	f001 f936 	bl	8002714 <HAL_GPIO_Init>
 80014a8:	2323      	movs	r3, #35	@ 0x23
 80014aa:	4860      	ldr	r0, [pc, #384]	@ (800162c <main+0x230>)
 80014ac:	a91b      	add	r1, sp, #108	@ 0x6c
 80014ae:	e9cd 361b 	strd	r3, r6, [sp, #108]	@ 0x6c
 80014b2:	e9cd 451d 	strd	r4, r5, [sp, #116]	@ 0x74
 80014b6:	f001 f92d 	bl	8002714 <HAL_GPIO_Init>
 80014ba:	f44f 4301 	mov.w	r3, #33024	@ 0x8100
 80014be:	485a      	ldr	r0, [pc, #360]	@ (8001628 <main+0x22c>)
 80014c0:	a91b      	add	r1, sp, #108	@ 0x6c
 80014c2:	e9cd 341b 	strd	r3, r4, [sp, #108]	@ 0x6c
 80014c6:	941d      	str	r4, [sp, #116]	@ 0x74
 80014c8:	f001 f924 	bl	8002714 <HAL_GPIO_Init>
 80014cc:	2318      	movs	r3, #24
 80014ce:	4857      	ldr	r0, [pc, #348]	@ (800162c <main+0x230>)
 80014d0:	a91b      	add	r1, sp, #108	@ 0x6c
 80014d2:	e9cd 341b 	strd	r3, r4, [sp, #108]	@ 0x6c
 80014d6:	260c      	movs	r6, #12
 80014d8:	941d      	str	r4, [sp, #116]	@ 0x74
 80014da:	f001 f91b 	bl	8002714 <HAL_GPIO_Init>
 80014de:	f44f 5316 	mov.w	r3, #9600	@ 0x2580
 80014e2:	4853      	ldr	r0, [pc, #332]	@ (8001630 <main+0x234>)
 80014e4:	4953      	ldr	r1, [pc, #332]	@ (8001634 <main+0x238>)
 80014e6:	e9c0 4402 	strd	r4, r4, [r0, #8]
 80014ea:	e9c0 1300 	strd	r1, r3, [r0]
 80014ee:	e9c0 6405 	strd	r6, r4, [r0, #20]
 80014f2:	6104      	str	r4, [r0, #16]
 80014f4:	61c4      	str	r4, [r0, #28]
 80014f6:	f002 ff1f 	bl	8004338 <HAL_UART_Init>
 80014fa:	b108      	cbz	r0, 8001500 <main+0x104>
 80014fc:	b672      	cpsid	i
 80014fe:	e7fe      	b.n	80014fe <main+0x102>
 8001500:	f44f 34e1 	mov.w	r4, #115200	@ 0x1c200
 8001504:	4d4c      	ldr	r5, [pc, #304]	@ (8001638 <main+0x23c>)
 8001506:	4b4d      	ldr	r3, [pc, #308]	@ (800163c <main+0x240>)
 8001508:	e9c5 0002 	strd	r0, r0, [r5, #8]
 800150c:	e9c5 0604 	strd	r0, r6, [r5, #16]
 8001510:	e9c5 0006 	strd	r0, r0, [r5, #24]
 8001514:	4628      	mov	r0, r5
 8001516:	e9c5 3400 	strd	r3, r4, [r5]
 800151a:	f002 ff0d 	bl	8004338 <HAL_UART_Init>
 800151e:	4603      	mov	r3, r0
 8001520:	b108      	cbz	r0, 8001526 <main+0x12a>
 8001522:	b672      	cpsid	i
 8001524:	e7fe      	b.n	8001524 <main+0x128>
 8001526:	4846      	ldr	r0, [pc, #280]	@ (8001640 <main+0x244>)
 8001528:	4a46      	ldr	r2, [pc, #280]	@ (8001644 <main+0x248>)
 800152a:	e9c0 3302 	strd	r3, r3, [r0, #8]
 800152e:	e9c0 2400 	strd	r2, r4, [r0]
 8001532:	e9c0 3604 	strd	r3, r6, [r0, #16]
 8001536:	e9c0 3306 	strd	r3, r3, [r0, #24]
 800153a:	f002 fefd 	bl	8004338 <HAL_UART_Init>
 800153e:	b108      	cbz	r0, 8001544 <main+0x148>
 8001540:	b672      	cpsid	i
 8001542:	e7fe      	b.n	8001542 <main+0x146>
 8001544:	4c40      	ldr	r4, [pc, #256]	@ (8001648 <main+0x24c>)
 8001546:	4a41      	ldr	r2, [pc, #260]	@ (800164c <main+0x250>)
 8001548:	4b41      	ldr	r3, [pc, #260]	@ (8001650 <main+0x254>)
 800154a:	e9c4 0002 	strd	r0, r0, [r4, #8]
 800154e:	e9c4 2300 	strd	r2, r3, [r4]
 8001552:	f44f 4380 	mov.w	r3, #16384	@ 0x4000
 8001556:	e9c4 0006 	strd	r0, r0, [r4, #24]
 800155a:	e9c4 3004 	strd	r3, r0, [r4, #16]
 800155e:	6220      	str	r0, [r4, #32]
 8001560:	4620      	mov	r0, r4
 8001562:	f001 fae1 	bl	8002b28 <HAL_I2C_Init>
 8001566:	4607      	mov	r7, r0
 8001568:	b108      	cbz	r0, 800156e <main+0x172>
 800156a:	b672      	cpsid	i
 800156c:	e7fe      	b.n	800156c <main+0x170>
 800156e:	4839      	ldr	r0, [pc, #228]	@ (8001654 <main+0x258>)
 8001570:	f7ff fd4c 	bl	800100c <DalyBMS_Set_Callback>
 8001574:	4628      	mov	r0, r5
 8001576:	4d38      	ldr	r5, [pc, #224]	@ (8001658 <main+0x25c>)
 8001578:	f000 f8aa 	bl	80016d0 <ModbusRTU_Init>
 800157c:	4621      	mov	r1, r4
 800157e:	2280      	movs	r2, #128	@ 0x80
 8001580:	4b36      	ldr	r3, [pc, #216]	@ (800165c <main+0x260>)
 8001582:	4837      	ldr	r0, [pc, #220]	@ (8001660 <main+0x264>)
 8001584:	9500      	str	r5, [sp, #0]
 8001586:	f7ff fd85 	bl	8001094 <INA219_Init>
 800158a:	4621      	mov	r1, r4
 800158c:	2282      	movs	r2, #130	@ 0x82
 800158e:	4b33      	ldr	r3, [pc, #204]	@ (800165c <main+0x260>)
 8001590:	4834      	ldr	r0, [pc, #208]	@ (8001664 <main+0x268>)
 8001592:	9500      	str	r5, [sp, #0]
 8001594:	f7ff fd7e 	bl	8001094 <INA219_Init>
 8001598:	4621      	mov	r1, r4
 800159a:	4c33      	ldr	r4, [pc, #204]	@ (8001668 <main+0x26c>)
 800159c:	2288      	movs	r2, #136	@ 0x88
 800159e:	4b2f      	ldr	r3, [pc, #188]	@ (800165c <main+0x260>)
 80015a0:	4832      	ldr	r0, [pc, #200]	@ (800166c <main+0x270>)
 80015a2:	9500      	str	r5, [sp, #0]
 80015a4:	ad06      	add	r5, sp, #24
 80015a6:	f7ff fd75 	bl	8001094 <INA219_Init>
 80015aa:	cc0f      	ldmia	r4!, {r0, r1, r2, r3}
 80015ac:	c50f      	stmia	r5!, {r0, r1, r2, r3}
 80015ae:	e894 0007 	ldmia.w	r4, {r0, r1, r2}
 80015b2:	e885 0007 	stmia.w	r5, {r0, r1, r2}
 80015b6:	4639      	mov	r1, r7
 80015b8:	a806      	add	r0, sp, #24
 80015ba:	f003 fa42 	bl	8004a42 <osThreadCreate>
 80015be:	4b2c      	ldr	r3, [pc, #176]	@ (8001670 <main+0x274>)
 80015c0:	f104 060c 	add.w	r6, r4, #12
 80015c4:	ad0d      	add	r5, sp, #52	@ 0x34
 80015c6:	6018      	str	r0, [r3, #0]
 80015c8:	ce0f      	ldmia	r6!, {r0, r1, r2, r3}
 80015ca:	c50f      	stmia	r5!, {r0, r1, r2, r3}
 80015cc:	e896 0007 	ldmia.w	r6, {r0, r1, r2}
 80015d0:	e885 0007 	stmia.w	r5, {r0, r1, r2}
 80015d4:	4639      	mov	r1, r7
 80015d6:	a80d      	add	r0, sp, #52	@ 0x34
 80015d8:	f003 fa33 	bl	8004a42 <osThreadCreate>
 80015dc:	4b25      	ldr	r3, [pc, #148]	@ (8001674 <main+0x278>)
 80015de:	f104 0628 	add.w	r6, r4, #40	@ 0x28
 80015e2:	ad14      	add	r5, sp, #80	@ 0x50
 80015e4:	6018      	str	r0, [r3, #0]
 80015e6:	ce0f      	ldmia	r6!, {r0, r1, r2, r3}
 80015e8:	c50f      	stmia	r5!, {r0, r1, r2, r3}
 80015ea:	e896 0007 	ldmia.w	r6, {r0, r1, r2}
 80015ee:	e885 0007 	stmia.w	r5, {r0, r1, r2}
 80015f2:	4639      	mov	r1, r7
 80015f4:	a814      	add	r0, sp, #80	@ 0x50
 80015f6:	f003 fa24 	bl	8004a42 <osThreadCreate>
 80015fa:	4b1f      	ldr	r3, [pc, #124]	@ (8001678 <main+0x27c>)
 80015fc:	ad1b      	add	r5, sp, #108	@ 0x6c
 80015fe:	3444      	adds	r4, #68	@ 0x44
 8001600:	6018      	str	r0, [r3, #0]
 8001602:	cc0f      	ldmia	r4!, {r0, r1, r2, r3}
 8001604:	c50f      	stmia	r5!, {r0, r1, r2, r3}
 8001606:	e894 0007 	ldmia.w	r4, {r0, r1, r2}
 800160a:	e885 0007 	stmia.w	r5, {r0, r1, r2}
 800160e:	4639      	mov	r1, r7
 8001610:	a81b      	add	r0, sp, #108	@ 0x6c
 8001612:	f003 fa16 	bl	8004a42 <osThreadCreate>
 8001616:	4b19      	ldr	r3, [pc, #100]	@ (800167c <main+0x280>)
 8001618:	6018      	str	r0, [r3, #0]
 800161a:	f003 fa0d 	bl	8004a38 <osKernelStart>
 800161e:	e7fe      	b.n	800161e <main+0x222>
 8001620:	40021000 	.word	0x40021000
 8001624:	40011000 	.word	0x40011000
 8001628:	40010800 	.word	0x40010800
 800162c:	40010c00 	.word	0x40010c00
 8001630:	200004dc 	.word	0x200004dc
 8001634:	40013800 	.word	0x40013800
 8001638:	20000494 	.word	0x20000494
 800163c:	40004400 	.word	0x40004400
 8001640:	2000044c 	.word	0x2000044c
 8001644:	40004800 	.word	0x40004800
 8001648:	20000524 	.word	0x20000524
 800164c:	40005400 	.word	0x40005400
 8001650:	000186a0 	.word	0x000186a0
 8001654:	08000fed 	.word	0x08000fed
 8001658:	40400000 	.word	0x40400000
 800165c:	3dcccccd 	.word	0x3dcccccd
 8001660:	20000424 	.word	0x20000424
 8001664:	2000040c 	.word	0x2000040c
 8001668:	080056fc 	.word	0x080056fc
 800166c:	200003f4 	.word	0x200003f4
 8001670:	20000448 	.word	0x20000448
 8001674:	20000444 	.word	0x20000444
 8001678:	20000440 	.word	0x20000440
 800167c:	2000043c 	.word	0x2000043c

08001680 <HAL_UART_RxCpltCallback>:
 8001680:	6802      	ldr	r2, [r0, #0]
 8001682:	4b03      	ldr	r3, [pc, #12]	@ (8001690 <HAL_UART_RxCpltCallback+0x10>)
 8001684:	429a      	cmp	r2, r3
 8001686:	d101      	bne.n	800168c <HAL_UART_RxCpltCallback+0xc>
 8001688:	f000 bc68 	b.w	8001f5c <ModbusRTU_RxCpltCallback>
 800168c:	4770      	bx	lr
 800168e:	bf00      	nop
 8001690:	40004400 	.word	0x40004400

08001694 <HAL_UART_ErrorCallback>:
 8001694:	b508      	push	{r3, lr}
 8001696:	4a0a      	ldr	r2, [pc, #40]	@ (80016c0 <HAL_UART_ErrorCallback+0x2c>)
 8001698:	6803      	ldr	r3, [r0, #0]
 800169a:	4293      	cmp	r3, r2
 800169c:	d103      	bne.n	80016a6 <HAL_UART_ErrorCallback+0x12>
 800169e:	e8bd 4008 	ldmia.w	sp!, {r3, lr}
 80016a2:	f000 bc9d 	b.w	8001fe0 <ModbusRTU_ErrorCallback>
 80016a6:	4a07      	ldr	r2, [pc, #28]	@ (80016c4 <HAL_UART_ErrorCallback+0x30>)
 80016a8:	4293      	cmp	r3, r2
 80016aa:	d108      	bne.n	80016be <HAL_UART_ErrorCallback+0x2a>
 80016ac:	f44f 4100 	mov.w	r1, #32768	@ 0x8000
 80016b0:	4805      	ldr	r0, [pc, #20]	@ (80016c8 <HAL_UART_ErrorCallback+0x34>)
 80016b2:	f001 f90e 	bl	80028d2 <HAL_GPIO_TogglePin>
 80016b6:	2200      	movs	r2, #0
 80016b8:	4b04      	ldr	r3, [pc, #16]	@ (80016cc <HAL_UART_ErrorCallback+0x38>)
 80016ba:	f883 20cb 	strb.w	r2, [r3, #203]	@ 0xcb
 80016be:	bd08      	pop	{r3, pc}
 80016c0:	40004400 	.word	0x40004400
 80016c4:	40013800 	.word	0x40013800
 80016c8:	40011000 	.word	0x40011000
 80016cc:	20000048 	.word	0x20000048

080016d0 <ModbusRTU_Init>:
 80016d0:	b538      	push	{r3, r4, r5, lr}
 80016d2:	b358      	cbz	r0, 800172c <ModbusRTU_Init+0x5c>
 80016d4:	2500      	movs	r5, #0
 80016d6:	4b16      	ldr	r3, [pc, #88]	@ (8001730 <ModbusRTU_Init+0x60>)
 80016d8:	4c16      	ldr	r4, [pc, #88]	@ (8001734 <ModbusRTU_Init+0x64>)
 80016da:	781b      	ldrb	r3, [r3, #0]
 80016dc:	6020      	str	r0, [r4, #0]
 80016de:	7123      	strb	r3, [r4, #4]
 80016e0:	f884 520a 	strb.w	r5, [r4, #522]	@ 0x20a
 80016e4:	f8a4 5206 	strh.w	r5, [r4, #518]	@ 0x206
 80016e8:	f8a4 5208 	strh.w	r5, [r4, #520]	@ 0x208
 80016ec:	f000 ff2a 	bl	8002544 <HAL_GetTick>
 80016f0:	f44f 7280 	mov.w	r2, #256	@ 0x100
 80016f4:	4629      	mov	r1, r5
 80016f6:	f8c4 020c 	str.w	r0, [r4, #524]	@ 0x20c
 80016fa:	1d60      	adds	r0, r4, #5
 80016fc:	f003 ffc6 	bl	800568c <memset>
 8001700:	f44f 7280 	mov.w	r2, #256	@ 0x100
 8001704:	4629      	mov	r1, r5
 8001706:	f204 1005 	addw	r0, r4, #261	@ 0x105
 800170a:	f003 ffbf 	bl	800568c <memset>
 800170e:	6820      	ldr	r0, [r4, #0]
 8001710:	f890 3042 	ldrb.w	r3, [r0, #66]	@ 0x42
 8001714:	2b20      	cmp	r3, #32
 8001716:	d001      	beq.n	800171c <ModbusRTU_Init+0x4c>
 8001718:	f002 fee2 	bl	80044e0 <HAL_UART_Abort>
 800171c:	e8bd 4038 	ldmia.w	sp!, {r3, r4, r5, lr}
 8001720:	4905      	ldr	r1, [pc, #20]	@ (8001738 <ModbusRTU_Init+0x68>)
 8001722:	2201      	movs	r2, #1
 8001724:	f851 0c05 	ldr.w	r0, [r1, #-5]
 8001728:	f003 b975 	b.w	8004a16 <HAL_UART_Receive_IT>
 800172c:	2001      	movs	r0, #1
 800172e:	bd38      	pop	{r3, r4, r5, pc}
 8001730:	20000004 	.word	0x20000004
 8001734:	2000057c 	.word	0x2000057c
 8001738:	20000581 	.word	0x20000581

0800173c <ModbusRTU_CalculateCRC>:
 800173c:	4602      	mov	r2, r0
 800173e:	4401      	add	r1, r0
 8001740:	f64f 70ff 	movw	r0, #65535	@ 0xffff
 8001744:	b530      	push	{r4, r5, lr}
 8001746:	4d09      	ldr	r5, [pc, #36]	@ (800176c <ModbusRTU_CalculateCRC+0x30>)
 8001748:	428a      	cmp	r2, r1
 800174a:	d100      	bne.n	800174e <ModbusRTU_CalculateCRC+0x12>
 800174c:	bd30      	pop	{r4, r5, pc}
 800174e:	2408      	movs	r4, #8
 8001750:	f812 3b01 	ldrb.w	r3, [r2], #1
 8001754:	4058      	eors	r0, r3
 8001756:	f340 0300 	sbfx	r3, r0, #0, #1
 800175a:	402b      	ands	r3, r5
 800175c:	ea83 0350 	eor.w	r3, r3, r0, lsr #1
 8001760:	b298      	uxth	r0, r3
 8001762:	1e63      	subs	r3, r4, #1
 8001764:	f013 04ff 	ands.w	r4, r3, #255	@ 0xff
 8001768:	d1f5      	bne.n	8001756 <ModbusRTU_CalculateCRC+0x1a>
 800176a:	e7ed      	b.n	8001748 <ModbusRTU_CalculateCRC+0xc>
 800176c:	ffffa001 	.word	0xffffa001

08001770 <ModbusRTU_CheckCRC>:
 8001770:	2903      	cmp	r1, #3
 8001772:	b538      	push	{r3, r4, r5, lr}
 8001774:	4604      	mov	r4, r0
 8001776:	460d      	mov	r5, r1
 8001778:	d90e      	bls.n	8001798 <ModbusRTU_CheckCRC+0x28>
 800177a:	3902      	subs	r1, #2
 800177c:	b289      	uxth	r1, r1
 800177e:	f7ff ffdd 	bl	800173c <ModbusRTU_CalculateCRC>
 8001782:	1961      	adds	r1, r4, r5
 8001784:	f811 2c01 	ldrb.w	r2, [r1, #-1]
 8001788:	f811 3c02 	ldrb.w	r3, [r1, #-2]
 800178c:	ea43 2302 	orr.w	r3, r3, r2, lsl #8
 8001790:	1a1b      	subs	r3, r3, r0
 8001792:	4258      	negs	r0, r3
 8001794:	4158      	adcs	r0, r3
 8001796:	bd38      	pop	{r3, r4, r5, pc}
 8001798:	2000      	movs	r0, #0
 800179a:	e7fc      	b.n	8001796 <ModbusRTU_CheckCRC+0x26>

0800179c <ModbusRTU_SendResponse>:
 800179c:	b570      	push	{r4, r5, r6, lr}
 800179e:	460c      	mov	r4, r1
 80017a0:	4606      	mov	r6, r0
 80017a2:	f7ff ffcb 	bl	800173c <ModbusRTU_CalculateCRC>
 80017a6:	4d1e      	ldr	r5, [pc, #120]	@ (8001820 <ModbusRTU_SendResponse+0x84>)
 80017a8:	1933      	adds	r3, r6, r4
 80017aa:	5530      	strb	r0, [r6, r4]
 80017ac:	0a00      	lsrs	r0, r0, #8
 80017ae:	7058      	strb	r0, [r3, #1]
 80017b0:	6828      	ldr	r0, [r5, #0]
 80017b2:	3402      	adds	r4, #2
 80017b4:	f002 ff0c 	bl	80045d0 <HAL_UART_AbortReceive_IT>
 80017b8:	b2a4      	uxth	r4, r4
 80017ba:	2001      	movs	r0, #1
 80017bc:	f000 fec8 	bl	8002550 <HAL_Delay>
 80017c0:	2c33      	cmp	r4, #51	@ 0x33
 80017c2:	4622      	mov	r2, r4
 80017c4:	bf34      	ite	cc
 80017c6:	2364      	movcc	r3, #100	@ 0x64
 80017c8:	23c8      	movcs	r3, #200	@ 0xc8
 80017ca:	4631      	mov	r1, r6
 80017cc:	6828      	ldr	r0, [r5, #0]
 80017ce:	f002 fde2 	bl	8004396 <HAL_UART_Transmit>
 80017d2:	4604      	mov	r4, r0
 80017d4:	b150      	cbz	r0, 80017ec <ModbusRTU_SendResponse+0x50>
 80017d6:	f44f 4100 	mov.w	r1, #32768	@ 0x8000
 80017da:	4812      	ldr	r0, [pc, #72]	@ (8001824 <ModbusRTU_SendResponse+0x88>)
 80017dc:	f001 f879 	bl	80028d2 <HAL_GPIO_TogglePin>
 80017e0:	6828      	ldr	r0, [r5, #0]
 80017e2:	f002 fe7d 	bl	80044e0 <HAL_UART_Abort>
 80017e6:	2407      	movs	r4, #7
 80017e8:	4620      	mov	r0, r4
 80017ea:	bd70      	pop	{r4, r5, r6, pc}
 80017ec:	4602      	mov	r2, r0
 80017ee:	f44f 4180 	mov.w	r1, #16384	@ 0x4000
 80017f2:	480c      	ldr	r0, [pc, #48]	@ (8001824 <ModbusRTU_SendResponse+0x88>)
 80017f4:	f001 f868 	bl	80028c8 <HAL_GPIO_WritePin>
 80017f8:	4621      	mov	r1, r4
 80017fa:	f44f 7280 	mov.w	r2, #256	@ 0x100
 80017fe:	1d68      	adds	r0, r5, #5
 8001800:	f8a5 4206 	strh.w	r4, [r5, #518]	@ 0x206
 8001804:	f885 420a 	strb.w	r4, [r5, #522]	@ 0x20a
 8001808:	f003 ff40 	bl	800568c <memset>
 800180c:	2001      	movs	r0, #1
 800180e:	f000 fe9f 	bl	8002550 <HAL_Delay>
 8001812:	4629      	mov	r1, r5
 8001814:	2201      	movs	r2, #1
 8001816:	f851 0b05 	ldr.w	r0, [r1], #5
 800181a:	f003 f8fc 	bl	8004a16 <HAL_UART_Receive_IT>
 800181e:	e7e3      	b.n	80017e8 <ModbusRTU_SendResponse+0x4c>
 8001820:	2000057c 	.word	0x2000057c
 8001824:	40011000 	.word	0x40011000

08001828 <ModbusRTU_SendException>:
 8001828:	4b07      	ldr	r3, [pc, #28]	@ (8001848 <ModbusRTU_SendException+0x20>)
 800182a:	f060 007f 	orn	r0, r0, #127	@ 0x7f
 800182e:	791a      	ldrb	r2, [r3, #4]
 8001830:	f883 0106 	strb.w	r0, [r3, #262]	@ 0x106
 8001834:	f883 1107 	strb.w	r1, [r3, #263]	@ 0x107
 8001838:	f203 1005 	addw	r0, r3, #261	@ 0x105
 800183c:	2103      	movs	r1, #3
 800183e:	f883 2105 	strb.w	r2, [r3, #261]	@ 0x105
 8001842:	f7ff bfab 	b.w	800179c <ModbusRTU_SendResponse>
 8001846:	bf00      	nop
 8001848:	2000057c 	.word	0x2000057c

0800184c <ModbusRTU_ReadRegister>:
 800184c:	284e      	cmp	r0, #78	@ 0x4e
 800184e:	b513      	push	{r0, r1, r4, lr}
 8001850:	d91a      	bls.n	8001888 <ModbusRTU_ReadRegister+0x3c>
 8001852:	f5a0 7380 	sub.w	r3, r0, #256	@ 0x100
 8001856:	2b08      	cmp	r3, #8
 8001858:	d901      	bls.n	800185e <ModbusRTU_ReadRegister+0x12>
 800185a:	2400      	movs	r4, #0
 800185c:	e011      	b.n	8001882 <ModbusRTU_ReadRegister+0x36>
 800185e:	f46f 7380 	mvn.w	r3, #256	@ 0x100
 8001862:	4418      	add	r0, r3
 8001864:	2807      	cmp	r0, #7
 8001866:	f200 819c 	bhi.w	8001ba2 <ModbusRTU_ReadRegister+0x356>
 800186a:	e8df f010 	tbh	[pc, r0, lsl #1]
 800186e:	019d      	.short	0x019d
 8001870:	01a301a0 	.word	0x01a301a0
 8001874:	000801d2 	.word	0x000801d2
 8001878:	01a60008 	.word	0x01a60008
 800187c:	01bf      	.short	0x01bf
 800187e:	f240 1401 	movw	r4, #257	@ 0x101
 8001882:	4620      	mov	r0, r4
 8001884:	b002      	add	sp, #8
 8001886:	bd10      	pop	{r4, pc}
 8001888:	284e      	cmp	r0, #78	@ 0x4e
 800188a:	d8e6      	bhi.n	800185a <ModbusRTU_ReadRegister+0xe>
 800188c:	a301      	add	r3, pc, #4	@ (adr r3, 8001894 <ModbusRTU_ReadRegister+0x48>)
 800188e:	f853 f020 	ldr.w	pc, [r3, r0, lsl #2]
 8001892:	bf00      	nop
 8001894:	080019d1 	.word	0x080019d1
 8001898:	080019d7 	.word	0x080019d7
 800189c:	080019dd 	.word	0x080019dd
 80018a0:	080019e3 	.word	0x080019e3
 80018a4:	080019e9 	.word	0x080019e9
 80018a8:	080019ef 	.word	0x080019ef
 80018ac:	080019f5 	.word	0x080019f5
 80018b0:	080019fb 	.word	0x080019fb
 80018b4:	08001a01 	.word	0x08001a01
 80018b8:	08001a07 	.word	0x08001a07
 80018bc:	08001a0f 	.word	0x08001a0f
 80018c0:	08001a15 	.word	0x08001a15
 80018c4:	08001a1b 	.word	0x08001a1b
 80018c8:	08001a23 	.word	0x08001a23
 80018cc:	08001a2b 	.word	0x08001a2b
 80018d0:	08001a31 	.word	0x08001a31
 80018d4:	08001a39 	.word	0x08001a39
 80018d8:	08001a41 	.word	0x08001a41
 80018dc:	08001a49 	.word	0x08001a49
 80018e0:	08001a51 	.word	0x08001a51
 80018e4:	08001a69 	.word	0x08001a69
 80018e8:	08001a69 	.word	0x08001a69
 80018ec:	08001a69 	.word	0x08001a69
 80018f0:	08001a69 	.word	0x08001a69
 80018f4:	08001a69 	.word	0x08001a69
 80018f8:	08001a69 	.word	0x08001a69
 80018fc:	08001a81 	.word	0x08001a81
 8001900:	08001a81 	.word	0x08001a81
 8001904:	08001a99 	.word	0x08001a99
 8001908:	08001a99 	.word	0x08001a99
 800190c:	08001a99 	.word	0x08001a99
 8001910:	08001a99 	.word	0x08001a99
 8001914:	08001a99 	.word	0x08001a99
 8001918:	08001a99 	.word	0x08001a99
 800191c:	08001a59 	.word	0x08001a59
 8001920:	08001a61 	.word	0x08001a61
 8001924:	08001ab1 	.word	0x08001ab1
 8001928:	08001ab7 	.word	0x08001ab7
 800192c:	08001abd 	.word	0x08001abd
 8001930:	08001ac3 	.word	0x08001ac3
 8001934:	08001ac9 	.word	0x08001ac9
 8001938:	08001acf 	.word	0x08001acf
 800193c:	08001ad5 	.word	0x08001ad5
 8001940:	08001adb 	.word	0x08001adb
 8001944:	0800185b 	.word	0x0800185b
 8001948:	0800185b 	.word	0x0800185b
 800194c:	0800185b 	.word	0x0800185b
 8001950:	0800185b 	.word	0x0800185b
 8001954:	08001ae1 	.word	0x08001ae1
 8001958:	08001ae5 	.word	0x08001ae5
 800195c:	08001ae9 	.word	0x08001ae9
 8001960:	08001aed 	.word	0x08001aed
 8001964:	08001af1 	.word	0x08001af1
 8001968:	08001af5 	.word	0x08001af5
 800196c:	08001af9 	.word	0x08001af9
 8001970:	08001afd 	.word	0x08001afd
 8001974:	08001b01 	.word	0x08001b01
 8001978:	08001b05 	.word	0x08001b05
 800197c:	08001b09 	.word	0x08001b09
 8001980:	08001b0d 	.word	0x08001b0d
 8001984:	08001b11 	.word	0x08001b11
 8001988:	08001b17 	.word	0x08001b17
 800198c:	08001b1b 	.word	0x08001b1b
 8001990:	08001b23 	.word	0x08001b23
 8001994:	08001b29 	.word	0x08001b29
 8001998:	08001b47 	.word	0x08001b47
 800199c:	08001b51 	.word	0x08001b51
 80019a0:	08001b5b 	.word	0x08001b5b
 80019a4:	08001b61 	.word	0x08001b61
 80019a8:	08001b67 	.word	0x08001b67
 80019ac:	08001b6d 	.word	0x08001b6d
 80019b0:	08001b73 	.word	0x08001b73
 80019b4:	08001b79 	.word	0x08001b79
 80019b8:	08001b7f 	.word	0x08001b7f
 80019bc:	08001b89 	.word	0x08001b89
 80019c0:	08001b8d 	.word	0x08001b8d
 80019c4:	08001b93 	.word	0x08001b93
 80019c8:	08001b97 	.word	0x08001b97
 80019cc:	08001b9b 	.word	0x08001b9b
 80019d0:	4b91      	ldr	r3, [pc, #580]	@ (8001c18 <ModbusRTU_ReadRegister+0x3cc>)
 80019d2:	8a1c      	ldrh	r4, [r3, #16]
 80019d4:	e755      	b.n	8001882 <ModbusRTU_ReadRegister+0x36>
 80019d6:	4b90      	ldr	r3, [pc, #576]	@ (8001c18 <ModbusRTU_ReadRegister+0x3cc>)
 80019d8:	8a5c      	ldrh	r4, [r3, #18]
 80019da:	e752      	b.n	8001882 <ModbusRTU_ReadRegister+0x36>
 80019dc:	4b8e      	ldr	r3, [pc, #568]	@ (8001c18 <ModbusRTU_ReadRegister+0x3cc>)
 80019de:	8a9c      	ldrh	r4, [r3, #20]
 80019e0:	e74f      	b.n	8001882 <ModbusRTU_ReadRegister+0x36>
 80019e2:	4b8d      	ldr	r3, [pc, #564]	@ (8001c18 <ModbusRTU_ReadRegister+0x3cc>)
 80019e4:	8adc      	ldrh	r4, [r3, #22]
 80019e6:	e74c      	b.n	8001882 <ModbusRTU_ReadRegister+0x36>
 80019e8:	4b8b      	ldr	r3, [pc, #556]	@ (8001c18 <ModbusRTU_ReadRegister+0x3cc>)
 80019ea:	8b1c      	ldrh	r4, [r3, #24]
 80019ec:	e749      	b.n	8001882 <ModbusRTU_ReadRegister+0x36>
 80019ee:	4b8a      	ldr	r3, [pc, #552]	@ (8001c18 <ModbusRTU_ReadRegister+0x3cc>)
 80019f0:	7e9c      	ldrb	r4, [r3, #26]
 80019f2:	e746      	b.n	8001882 <ModbusRTU_ReadRegister+0x36>
 80019f4:	4b88      	ldr	r3, [pc, #544]	@ (8001c18 <ModbusRTU_ReadRegister+0x3cc>)
 80019f6:	7edc      	ldrb	r4, [r3, #27]
 80019f8:	e743      	b.n	8001882 <ModbusRTU_ReadRegister+0x36>
 80019fa:	4b87      	ldr	r3, [pc, #540]	@ (8001c18 <ModbusRTU_ReadRegister+0x3cc>)
 80019fc:	7f1c      	ldrb	r4, [r3, #28]
 80019fe:	e740      	b.n	8001882 <ModbusRTU_ReadRegister+0x36>
 8001a00:	4b85      	ldr	r3, [pc, #532]	@ (8001c18 <ModbusRTU_ReadRegister+0x3cc>)
 8001a02:	7f5c      	ldrb	r4, [r3, #29]
 8001a04:	e73d      	b.n	8001882 <ModbusRTU_ReadRegister+0x36>
 8001a06:	4b84      	ldr	r3, [pc, #528]	@ (8001c18 <ModbusRTU_ReadRegister+0x3cc>)
 8001a08:	f893 40cb 	ldrb.w	r4, [r3, #203]	@ 0xcb
 8001a0c:	e739      	b.n	8001882 <ModbusRTU_ReadRegister+0x36>
 8001a0e:	4b82      	ldr	r3, [pc, #520]	@ (8001c18 <ModbusRTU_ReadRegister+0x3cc>)
 8001a10:	7f9c      	ldrb	r4, [r3, #30]
 8001a12:	e736      	b.n	8001882 <ModbusRTU_ReadRegister+0x36>
 8001a14:	4b80      	ldr	r3, [pc, #512]	@ (8001c18 <ModbusRTU_ReadRegister+0x3cc>)
 8001a16:	7fdc      	ldrb	r4, [r3, #31]
 8001a18:	e733      	b.n	8001882 <ModbusRTU_ReadRegister+0x36>
 8001a1a:	4b7f      	ldr	r3, [pc, #508]	@ (8001c18 <ModbusRTU_ReadRegister+0x3cc>)
 8001a1c:	f893 4020 	ldrb.w	r4, [r3, #32]
 8001a20:	e72f      	b.n	8001882 <ModbusRTU_ReadRegister+0x36>
 8001a22:	4b7d      	ldr	r3, [pc, #500]	@ (8001c18 <ModbusRTU_ReadRegister+0x3cc>)
 8001a24:	f893 4021 	ldrb.w	r4, [r3, #33]	@ 0x21
 8001a28:	e72b      	b.n	8001882 <ModbusRTU_ReadRegister+0x36>
 8001a2a:	4b7b      	ldr	r3, [pc, #492]	@ (8001c18 <ModbusRTU_ReadRegister+0x3cc>)
 8001a2c:	8c5c      	ldrh	r4, [r3, #34]	@ 0x22
 8001a2e:	e728      	b.n	8001882 <ModbusRTU_ReadRegister+0x36>
 8001a30:	4b79      	ldr	r3, [pc, #484]	@ (8001c18 <ModbusRTU_ReadRegister+0x3cc>)
 8001a32:	f893 4024 	ldrb.w	r4, [r3, #36]	@ 0x24
 8001a36:	e724      	b.n	8001882 <ModbusRTU_ReadRegister+0x36>
 8001a38:	4b77      	ldr	r3, [pc, #476]	@ (8001c18 <ModbusRTU_ReadRegister+0x3cc>)
 8001a3a:	f893 4025 	ldrb.w	r4, [r3, #37]	@ 0x25
 8001a3e:	e720      	b.n	8001882 <ModbusRTU_ReadRegister+0x36>
 8001a40:	4b75      	ldr	r3, [pc, #468]	@ (8001c18 <ModbusRTU_ReadRegister+0x3cc>)
 8001a42:	f893 4026 	ldrb.w	r4, [r3, #38]	@ 0x26
 8001a46:	e71c      	b.n	8001882 <ModbusRTU_ReadRegister+0x36>
 8001a48:	4b73      	ldr	r3, [pc, #460]	@ (8001c18 <ModbusRTU_ReadRegister+0x3cc>)
 8001a4a:	f893 4027 	ldrb.w	r4, [r3, #39]	@ 0x27
 8001a4e:	e718      	b.n	8001882 <ModbusRTU_ReadRegister+0x36>
 8001a50:	4b71      	ldr	r3, [pc, #452]	@ (8001c18 <ModbusRTU_ReadRegister+0x3cc>)
 8001a52:	f893 4028 	ldrb.w	r4, [r3, #40]	@ 0x28
 8001a56:	e714      	b.n	8001882 <ModbusRTU_ReadRegister+0x36>
 8001a58:	4b6f      	ldr	r3, [pc, #444]	@ (8001c18 <ModbusRTU_ReadRegister+0x3cc>)
 8001a5a:	f893 40ca 	ldrb.w	r4, [r3, #202]	@ 0xca
 8001a5e:	e710      	b.n	8001882 <ModbusRTU_ReadRegister+0x36>
 8001a60:	4b6d      	ldr	r3, [pc, #436]	@ (8001c18 <ModbusRTU_ReadRegister+0x3cc>)
 8001a62:	f8b3 40d0 	ldrh.w	r4, [r3, #208]	@ 0xd0
 8001a66:	e70c      	b.n	8001882 <ModbusRTU_ReadRegister+0x36>
 8001a68:	4b6b      	ldr	r3, [pc, #428]	@ (8001c18 <ModbusRTU_ReadRegister+0x3cc>)
 8001a6a:	3814      	subs	r0, #20
 8001a6c:	f893 2024 	ldrb.w	r2, [r3, #36]	@ 0x24
 8001a70:	b2c0      	uxtb	r0, r0
 8001a72:	4282      	cmp	r2, r0
 8001a74:	f67f aef1 	bls.w	800185a <ModbusRTU_ReadRegister+0xe>
 8001a78:	eb03 0340 	add.w	r3, r3, r0, lsl #1
 8001a7c:	8d5c      	ldrh	r4, [r3, #42]	@ 0x2a
 8001a7e:	e700      	b.n	8001882 <ModbusRTU_ReadRegister+0x36>
 8001a80:	4b65      	ldr	r3, [pc, #404]	@ (8001c18 <ModbusRTU_ReadRegister+0x3cc>)
 8001a82:	381a      	subs	r0, #26
 8001a84:	f893 2025 	ldrb.w	r2, [r3, #37]	@ 0x25
 8001a88:	b2c0      	uxtb	r0, r0
 8001a8a:	4282      	cmp	r2, r0
 8001a8c:	f67f aee5 	bls.w	800185a <ModbusRTU_ReadRegister+0xe>
 8001a90:	4403      	add	r3, r0
 8001a92:	f893 408a 	ldrb.w	r4, [r3, #138]	@ 0x8a
 8001a96:	e6f4      	b.n	8001882 <ModbusRTU_ReadRegister+0x36>
 8001a98:	4b5f      	ldr	r3, [pc, #380]	@ (8001c18 <ModbusRTU_ReadRegister+0x3cc>)
 8001a9a:	381c      	subs	r0, #28
 8001a9c:	f893 2024 	ldrb.w	r2, [r3, #36]	@ 0x24
 8001aa0:	b2c0      	uxtb	r0, r0
 8001aa2:	4282      	cmp	r2, r0
 8001aa4:	f67f aed9 	bls.w	800185a <ModbusRTU_ReadRegister+0xe>
 8001aa8:	4403      	add	r3, r0
 8001aaa:	f893 409a 	ldrb.w	r4, [r3, #154]	@ 0x9a
 8001aae:	e6e8      	b.n	8001882 <ModbusRTU_ReadRegister+0x36>
 8001ab0:	4b59      	ldr	r3, [pc, #356]	@ (8001c18 <ModbusRTU_ReadRegister+0x3cc>)
 8001ab2:	881c      	ldrh	r4, [r3, #0]
 8001ab4:	e6e5      	b.n	8001882 <ModbusRTU_ReadRegister+0x36>
 8001ab6:	4b58      	ldr	r3, [pc, #352]	@ (8001c18 <ModbusRTU_ReadRegister+0x3cc>)
 8001ab8:	885c      	ldrh	r4, [r3, #2]
 8001aba:	e6e2      	b.n	8001882 <ModbusRTU_ReadRegister+0x36>
 8001abc:	4b56      	ldr	r3, [pc, #344]	@ (8001c18 <ModbusRTU_ReadRegister+0x3cc>)
 8001abe:	889c      	ldrh	r4, [r3, #4]
 8001ac0:	e6df      	b.n	8001882 <ModbusRTU_ReadRegister+0x36>
 8001ac2:	4b55      	ldr	r3, [pc, #340]	@ (8001c18 <ModbusRTU_ReadRegister+0x3cc>)
 8001ac4:	88dc      	ldrh	r4, [r3, #6]
 8001ac6:	e6dc      	b.n	8001882 <ModbusRTU_ReadRegister+0x36>
 8001ac8:	4b53      	ldr	r3, [pc, #332]	@ (8001c18 <ModbusRTU_ReadRegister+0x3cc>)
 8001aca:	891c      	ldrh	r4, [r3, #8]
 8001acc:	e6d9      	b.n	8001882 <ModbusRTU_ReadRegister+0x36>
 8001ace:	4b52      	ldr	r3, [pc, #328]	@ (8001c18 <ModbusRTU_ReadRegister+0x3cc>)
 8001ad0:	895c      	ldrh	r4, [r3, #10]
 8001ad2:	e6d6      	b.n	8001882 <ModbusRTU_ReadRegister+0x36>
 8001ad4:	4b50      	ldr	r3, [pc, #320]	@ (8001c18 <ModbusRTU_ReadRegister+0x3cc>)
 8001ad6:	899c      	ldrh	r4, [r3, #12]
 8001ad8:	e6d3      	b.n	8001882 <ModbusRTU_ReadRegister+0x36>
 8001ada:	4b4f      	ldr	r3, [pc, #316]	@ (8001c18 <ModbusRTU_ReadRegister+0x3cc>)
 8001adc:	89dc      	ldrh	r4, [r3, #14]
 8001ade:	e6d0      	b.n	8001882 <ModbusRTU_ReadRegister+0x36>
 8001ae0:	4b4e      	ldr	r3, [pc, #312]	@ (8001c1c <ModbusRTU_ReadRegister+0x3d0>)
 8001ae2:	e7e6      	b.n	8001ab2 <ModbusRTU_ReadRegister+0x266>
 8001ae4:	4b4d      	ldr	r3, [pc, #308]	@ (8001c1c <ModbusRTU_ReadRegister+0x3d0>)
 8001ae6:	e7e7      	b.n	8001ab8 <ModbusRTU_ReadRegister+0x26c>
 8001ae8:	4b4c      	ldr	r3, [pc, #304]	@ (8001c1c <ModbusRTU_ReadRegister+0x3d0>)
 8001aea:	e7e8      	b.n	8001abe <ModbusRTU_ReadRegister+0x272>
 8001aec:	4b4b      	ldr	r3, [pc, #300]	@ (8001c1c <ModbusRTU_ReadRegister+0x3d0>)
 8001aee:	e7e9      	b.n	8001ac4 <ModbusRTU_ReadRegister+0x278>
 8001af0:	4b4a      	ldr	r3, [pc, #296]	@ (8001c1c <ModbusRTU_ReadRegister+0x3d0>)
 8001af2:	e7ea      	b.n	8001aca <ModbusRTU_ReadRegister+0x27e>
 8001af4:	4b49      	ldr	r3, [pc, #292]	@ (8001c1c <ModbusRTU_ReadRegister+0x3d0>)
 8001af6:	e7eb      	b.n	8001ad0 <ModbusRTU_ReadRegister+0x284>
 8001af8:	4b48      	ldr	r3, [pc, #288]	@ (8001c1c <ModbusRTU_ReadRegister+0x3d0>)
 8001afa:	e7ec      	b.n	8001ad6 <ModbusRTU_ReadRegister+0x28a>
 8001afc:	4b47      	ldr	r3, [pc, #284]	@ (8001c1c <ModbusRTU_ReadRegister+0x3d0>)
 8001afe:	e768      	b.n	80019d2 <ModbusRTU_ReadRegister+0x186>
 8001b00:	4b46      	ldr	r3, [pc, #280]	@ (8001c1c <ModbusRTU_ReadRegister+0x3d0>)
 8001b02:	e769      	b.n	80019d8 <ModbusRTU_ReadRegister+0x18c>
 8001b04:	4b45      	ldr	r3, [pc, #276]	@ (8001c1c <ModbusRTU_ReadRegister+0x3d0>)
 8001b06:	e76a      	b.n	80019de <ModbusRTU_ReadRegister+0x192>
 8001b08:	4b44      	ldr	r3, [pc, #272]	@ (8001c1c <ModbusRTU_ReadRegister+0x3d0>)
 8001b0a:	e76b      	b.n	80019e4 <ModbusRTU_ReadRegister+0x198>
 8001b0c:	4b43      	ldr	r3, [pc, #268]	@ (8001c1c <ModbusRTU_ReadRegister+0x3d0>)
 8001b0e:	e76c      	b.n	80019ea <ModbusRTU_ReadRegister+0x19e>
 8001b10:	4b42      	ldr	r3, [pc, #264]	@ (8001c1c <ModbusRTU_ReadRegister+0x3d0>)
 8001b12:	8b5c      	ldrh	r4, [r3, #26]
 8001b14:	e6b5      	b.n	8001882 <ModbusRTU_ReadRegister+0x36>
 8001b16:	4b41      	ldr	r3, [pc, #260]	@ (8001c1c <ModbusRTU_ReadRegister+0x3d0>)
 8001b18:	e7e0      	b.n	8001adc <ModbusRTU_ReadRegister+0x290>
 8001b1a:	f7fe fe3d 	bl	8000798 <ChargeControl_GetChargeStateForModbus>
 8001b1e:	4604      	mov	r4, r0
 8001b20:	e6af      	b.n	8001882 <ModbusRTU_ReadRegister+0x36>
 8001b22:	4b3f      	ldr	r3, [pc, #252]	@ (8001c20 <ModbusRTU_ReadRegister+0x3d4>)
 8001b24:	781c      	ldrb	r4, [r3, #0]
 8001b26:	e6ac      	b.n	8001882 <ModbusRTU_ReadRegister+0x36>
 8001b28:	483e      	ldr	r0, [pc, #248]	@ (8001c24 <ModbusRTU_ReadRegister+0x3d8>)
 8001b2a:	a901      	add	r1, sp, #4
 8001b2c:	f7ff fae2 	bl	80010f4 <INA219_Read_Bus_Voltage>
 8001b30:	2800      	cmp	r0, #0
 8001b32:	f47f ae92 	bne.w	800185a <ModbusRTU_ReadRegister+0xe>
 8001b36:	493c      	ldr	r1, [pc, #240]	@ (8001c28 <ModbusRTU_ReadRegister+0x3dc>)
 8001b38:	9801      	ldr	r0, [sp, #4]
 8001b3a:	f7fe fc17 	bl	800036c <__aeabi_fmul>
 8001b3e:	f7fe fddb 	bl	80006f8 <__aeabi_f2uiz>
 8001b42:	b284      	uxth	r4, r0
 8001b44:	e69d      	b.n	8001882 <ModbusRTU_ReadRegister+0x36>
 8001b46:	4837      	ldr	r0, [pc, #220]	@ (8001c24 <ModbusRTU_ReadRegister+0x3d8>)
 8001b48:	a901      	add	r1, sp, #4
 8001b4a:	f7ff faef 	bl	800112c <INA219_Read_Current>
 8001b4e:	e7ef      	b.n	8001b30 <ModbusRTU_ReadRegister+0x2e4>
 8001b50:	4834      	ldr	r0, [pc, #208]	@ (8001c24 <ModbusRTU_ReadRegister+0x3d8>)
 8001b52:	a901      	add	r1, sp, #4
 8001b54:	f7ff fb04 	bl	8001160 <INA219_Read_Power>
 8001b58:	e7ea      	b.n	8001b30 <ModbusRTU_ReadRegister+0x2e4>
 8001b5a:	4834      	ldr	r0, [pc, #208]	@ (8001c2c <ModbusRTU_ReadRegister+0x3e0>)
 8001b5c:	a901      	add	r1, sp, #4
 8001b5e:	e7e5      	b.n	8001b2c <ModbusRTU_ReadRegister+0x2e0>
 8001b60:	4832      	ldr	r0, [pc, #200]	@ (8001c2c <ModbusRTU_ReadRegister+0x3e0>)
 8001b62:	a901      	add	r1, sp, #4
 8001b64:	e7f1      	b.n	8001b4a <ModbusRTU_ReadRegister+0x2fe>
 8001b66:	4831      	ldr	r0, [pc, #196]	@ (8001c2c <ModbusRTU_ReadRegister+0x3e0>)
 8001b68:	a901      	add	r1, sp, #4
 8001b6a:	e7f3      	b.n	8001b54 <ModbusRTU_ReadRegister+0x308>
 8001b6c:	4830      	ldr	r0, [pc, #192]	@ (8001c30 <ModbusRTU_ReadRegister+0x3e4>)
 8001b6e:	a901      	add	r1, sp, #4
 8001b70:	e7dc      	b.n	8001b2c <ModbusRTU_ReadRegister+0x2e0>
 8001b72:	482f      	ldr	r0, [pc, #188]	@ (8001c30 <ModbusRTU_ReadRegister+0x3e4>)
 8001b74:	a901      	add	r1, sp, #4
 8001b76:	e7e8      	b.n	8001b4a <ModbusRTU_ReadRegister+0x2fe>
 8001b78:	482d      	ldr	r0, [pc, #180]	@ (8001c30 <ModbusRTU_ReadRegister+0x3e4>)
 8001b7a:	a901      	add	r1, sp, #4
 8001b7c:	e7ea      	b.n	8001b54 <ModbusRTU_ReadRegister+0x308>
 8001b7e:	2102      	movs	r1, #2
 8001b80:	482c      	ldr	r0, [pc, #176]	@ (8001c34 <ModbusRTU_ReadRegister+0x3e8>)
 8001b82:	f000 fe9b 	bl	80028bc <HAL_GPIO_ReadPin>
 8001b86:	e7ca      	b.n	8001b1e <ModbusRTU_ReadRegister+0x2d2>
 8001b88:	2101      	movs	r1, #1
 8001b8a:	e7f9      	b.n	8001b80 <ModbusRTU_ReadRegister+0x334>
 8001b8c:	2180      	movs	r1, #128	@ 0x80
 8001b8e:	482a      	ldr	r0, [pc, #168]	@ (8001c38 <ModbusRTU_ReadRegister+0x3ec>)
 8001b90:	e7f7      	b.n	8001b82 <ModbusRTU_ReadRegister+0x336>
 8001b92:	2120      	movs	r1, #32
 8001b94:	e7f4      	b.n	8001b80 <ModbusRTU_ReadRegister+0x334>
 8001b96:	2140      	movs	r1, #64	@ 0x40
 8001b98:	e7f9      	b.n	8001b8e <ModbusRTU_ReadRegister+0x342>
 8001b9a:	4b28      	ldr	r3, [pc, #160]	@ (8001c3c <ModbusRTU_ReadRegister+0x3f0>)
 8001b9c:	4928      	ldr	r1, [pc, #160]	@ (8001c40 <ModbusRTU_ReadRegister+0x3f4>)
 8001b9e:	6818      	ldr	r0, [r3, #0]
 8001ba0:	e7cb      	b.n	8001b3a <ModbusRTU_ReadRegister+0x2ee>
 8001ba2:	4b28      	ldr	r3, [pc, #160]	@ (8001c44 <ModbusRTU_ReadRegister+0x3f8>)
 8001ba4:	791c      	ldrb	r4, [r3, #4]
 8001ba6:	e66c      	b.n	8001882 <ModbusRTU_ReadRegister+0x36>
 8001ba8:	4b27      	ldr	r3, [pc, #156]	@ (8001c48 <ModbusRTU_ReadRegister+0x3fc>)
 8001baa:	785c      	ldrb	r4, [r3, #1]
 8001bac:	e669      	b.n	8001882 <ModbusRTU_ReadRegister+0x36>
 8001bae:	4b26      	ldr	r3, [pc, #152]	@ (8001c48 <ModbusRTU_ReadRegister+0x3fc>)
 8001bb0:	789c      	ldrb	r4, [r3, #2]
 8001bb2:	e666      	b.n	8001882 <ModbusRTU_ReadRegister+0x36>
 8001bb4:	4b24      	ldr	r3, [pc, #144]	@ (8001c48 <ModbusRTU_ReadRegister+0x3fc>)
 8001bb6:	78dc      	ldrb	r4, [r3, #3]
 8001bb8:	e663      	b.n	8001882 <ModbusRTU_ReadRegister+0x36>
 8001bba:	4b17      	ldr	r3, [pc, #92]	@ (8001c18 <ModbusRTU_ReadRegister+0x3cc>)
 8001bbc:	f893 00cb 	ldrb.w	r0, [r3, #203]	@ 0xcb
 8001bc0:	4b16      	ldr	r3, [pc, #88]	@ (8001c1c <ModbusRTU_ReadRegister+0x3d0>)
 8001bc2:	8b5b      	ldrh	r3, [r3, #26]
 8001bc4:	b10b      	cbz	r3, 8001bca <ModbusRTU_ReadRegister+0x37e>
 8001bc6:	f040 0002 	orr.w	r0, r0, #2
 8001bca:	4b20      	ldr	r3, [pc, #128]	@ (8001c4c <ModbusRTU_ReadRegister+0x400>)
 8001bcc:	2140      	movs	r1, #64	@ 0x40
 8001bce:	781b      	ldrb	r3, [r3, #0]
 8001bd0:	425b      	negs	r3, r3
 8001bd2:	f003 0304 	and.w	r3, r3, #4
 8001bd6:	ea40 0403 	orr.w	r4, r0, r3
 8001bda:	4817      	ldr	r0, [pc, #92]	@ (8001c38 <ModbusRTU_ReadRegister+0x3ec>)
 8001bdc:	f000 fe6e 	bl	80028bc <HAL_GPIO_ReadPin>
 8001be0:	2800      	cmp	r0, #0
 8001be2:	f43f ae4e 	beq.w	8001882 <ModbusRTU_ReadRegister+0x36>
 8001be6:	f044 0008 	orr.w	r0, r4, #8
 8001bea:	e7aa      	b.n	8001b42 <ModbusRTU_ReadRegister+0x2f6>
 8001bec:	4b0a      	ldr	r3, [pc, #40]	@ (8001c18 <ModbusRTU_ReadRegister+0x3cc>)
 8001bee:	f893 00cb 	ldrb.w	r0, [r3, #203]	@ 0xcb
 8001bf2:	e9d3 2334 	ldrd	r2, r3, [r3, #208]	@ 0xd0
 8001bf6:	431a      	orrs	r2, r3
 8001bf8:	4b08      	ldr	r3, [pc, #32]	@ (8001c1c <ModbusRTU_ReadRegister+0x3d0>)
 8001bfa:	f080 0401 	eor.w	r4, r0, #1
 8001bfe:	8b5b      	ldrh	r3, [r3, #26]
 8001c00:	bf18      	it	ne
 8001c02:	f044 0402 	orrne.w	r4, r4, #2
 8001c06:	2b00      	cmp	r3, #0
 8001c08:	f47f ae3b 	bne.w	8001882 <ModbusRTU_ReadRegister+0x36>
 8001c0c:	f044 0004 	orr.w	r0, r4, #4
 8001c10:	e797      	b.n	8001b42 <ModbusRTU_ReadRegister+0x2f6>
 8001c12:	2402      	movs	r4, #2
 8001c14:	e635      	b.n	8001882 <ModbusRTU_ReadRegister+0x36>
 8001c16:	bf00      	nop
 8001c18:	20000048 	.word	0x20000048
 8001c1c:	200007be 	.word	0x200007be
 8001c20:	2000003c 	.word	0x2000003c
 8001c24:	20000424 	.word	0x20000424
 8001c28:	41200000 	.word	0x41200000
 8001c2c:	2000040c 	.word	0x2000040c
 8001c30:	200003f4 	.word	0x200003f4
 8001c34:	40010c00 	.word	0x40010c00
 8001c38:	40010800 	.word	0x40010800
 8001c3c:	20000000 	.word	0x20000000
 8001c40:	42c80000 	.word	0x42c80000
 8001c44:	2000057c 	.word	0x2000057c
 8001c48:	20000004 	.word	0x20000004
 8001c4c:	200003f0 	.word	0x200003f0

08001c50 <ModbusRTU_WriteRegister>:
 8001c50:	b508      	push	{r3, lr}
 8001c52:	4603      	mov	r3, r0
 8001c54:	2b3f      	cmp	r3, #63	@ 0x3f
 8001c56:	4608      	mov	r0, r1
 8001c58:	d03c      	beq.n	8001cd4 <ModbusRTU_WriteRegister+0x84>
 8001c5a:	d816      	bhi.n	8001c8a <ModbusRTU_WriteRegister+0x3a>
 8001c5c:	2b31      	cmp	r3, #49	@ 0x31
 8001c5e:	d033      	beq.n	8001cc8 <ModbusRTU_WriteRegister+0x78>
 8001c60:	d80c      	bhi.n	8001c7c <ModbusRTU_WriteRegister+0x2c>
 8001c62:	2b2b      	cmp	r3, #43	@ 0x2b
 8001c64:	d803      	bhi.n	8001c6e <ModbusRTU_WriteRegister+0x1e>
 8001c66:	2b23      	cmp	r3, #35	@ 0x23
 8001c68:	d839      	bhi.n	8001cde <ModbusRTU_WriteRegister+0x8e>
 8001c6a:	2005      	movs	r0, #5
 8001c6c:	e005      	b.n	8001c7a <ModbusRTU_WriteRegister+0x2a>
 8001c6e:	2b30      	cmp	r3, #48	@ 0x30
 8001c70:	d1fb      	bne.n	8001c6a <ModbusRTU_WriteRegister+0x1a>
 8001c72:	f000 faaf 	bl	80021d4 <SK60X_Set_Voltage>
 8001c76:	bb90      	cbnz	r0, 8001cde <ModbusRTU_WriteRegister+0x8e>
 8001c78:	2006      	movs	r0, #6
 8001c7a:	bd08      	pop	{r3, pc}
 8001c7c:	2b3c      	cmp	r3, #60	@ 0x3c
 8001c7e:	d026      	beq.n	8001cce <ModbusRTU_WriteRegister+0x7e>
 8001c80:	2b3d      	cmp	r3, #61	@ 0x3d
 8001c82:	d1f2      	bne.n	8001c6a <ModbusRTU_WriteRegister+0x1a>
 8001c84:	f000 fa9e 	bl	80021c4 <SK60X_Set_Lock>
 8001c88:	e7f5      	b.n	8001c76 <ModbusRTU_WriteRegister+0x26>
 8001c8a:	2b4e      	cmp	r3, #78	@ 0x4e
 8001c8c:	d029      	beq.n	8001ce2 <ModbusRTU_WriteRegister+0x92>
 8001c8e:	f46f 7280 	mvn.w	r2, #256	@ 0x100
 8001c92:	4413      	add	r3, r2
 8001c94:	b29a      	uxth	r2, r3
 8001c96:	2a08      	cmp	r2, #8
 8001c98:	d8e7      	bhi.n	8001c6a <ModbusRTU_WriteRegister+0x1a>
 8001c9a:	2b08      	cmp	r3, #8
 8001c9c:	d8e5      	bhi.n	8001c6a <ModbusRTU_WriteRegister+0x1a>
 8001c9e:	a201      	add	r2, pc, #4	@ (adr r2, 8001ca4 <ModbusRTU_WriteRegister+0x54>)
 8001ca0:	f852 f023 	ldr.w	pc, [r2, r3, lsl #2]
 8001ca4:	08001d03 	.word	0x08001d03
 8001ca8:	08001d0f 	.word	0x08001d0f
 8001cac:	08001d19 	.word	0x08001d19
 8001cb0:	08001c6b 	.word	0x08001c6b
 8001cb4:	08001c6b 	.word	0x08001c6b
 8001cb8:	08001c6b 	.word	0x08001c6b
 8001cbc:	08001c6b 	.word	0x08001c6b
 8001cc0:	08001c6b 	.word	0x08001c6b
 8001cc4:	08001cfd 	.word	0x08001cfd
 8001cc8:	f000 fa91 	bl	80021ee <SK60X_Set_Current>
 8001ccc:	e7d3      	b.n	8001c76 <ModbusRTU_WriteRegister+0x26>
 8001cce:	f000 fa71 	bl	80021b4 <SK60X_Set_On_Off>
 8001cd2:	e7d0      	b.n	8001c76 <ModbusRTU_WriteRegister+0x26>
 8001cd4:	1e08      	subs	r0, r1, #0
 8001cd6:	bf18      	it	ne
 8001cd8:	2001      	movne	r0, #1
 8001cda:	f7fe fd51 	bl	8000780 <ChargeControl_HandleRequest>
 8001cde:	2000      	movs	r0, #0
 8001ce0:	e7cb      	b.n	8001c7a <ModbusRTU_WriteRegister+0x2a>
 8001ce2:	f5a1 737a 	sub.w	r3, r1, #1000	@ 0x3e8
 8001ce6:	f5b3 7f7a 	cmp.w	r3, #1000	@ 0x3e8
 8001cea:	d8c5      	bhi.n	8001c78 <ModbusRTU_WriteRegister+0x28>
 8001cec:	f7fe fae6 	bl	80002bc <__aeabi_ui2f>
 8001cf0:	490c      	ldr	r1, [pc, #48]	@ (8001d24 <ModbusRTU_WriteRegister+0xd4>)
 8001cf2:	f7fe fbef 	bl	80004d4 <__aeabi_fdiv>
 8001cf6:	4b0c      	ldr	r3, [pc, #48]	@ (8001d28 <ModbusRTU_WriteRegister+0xd8>)
 8001cf8:	6018      	str	r0, [r3, #0]
 8001cfa:	e7f0      	b.n	8001cde <ModbusRTU_WriteRegister+0x8e>
 8001cfc:	2801      	cmp	r0, #1
 8001cfe:	d1bb      	bne.n	8001c78 <ModbusRTU_WriteRegister+0x28>
 8001d00:	e7ed      	b.n	8001cde <ModbusRTU_WriteRegister+0x8e>
 8001d02:	1e43      	subs	r3, r0, #1
 8001d04:	2b04      	cmp	r3, #4
 8001d06:	d8b7      	bhi.n	8001c78 <ModbusRTU_WriteRegister+0x28>
 8001d08:	4b08      	ldr	r3, [pc, #32]	@ (8001d2c <ModbusRTU_WriteRegister+0xdc>)
 8001d0a:	7058      	strb	r0, [r3, #1]
 8001d0c:	e7e7      	b.n	8001cde <ModbusRTU_WriteRegister+0x8e>
 8001d0e:	2802      	cmp	r0, #2
 8001d10:	d8b2      	bhi.n	8001c78 <ModbusRTU_WriteRegister+0x28>
 8001d12:	4b06      	ldr	r3, [pc, #24]	@ (8001d2c <ModbusRTU_WriteRegister+0xdc>)
 8001d14:	7098      	strb	r0, [r3, #2]
 8001d16:	e7e2      	b.n	8001cde <ModbusRTU_WriteRegister+0x8e>
 8001d18:	1e43      	subs	r3, r0, #1
 8001d1a:	2b01      	cmp	r3, #1
 8001d1c:	d8ac      	bhi.n	8001c78 <ModbusRTU_WriteRegister+0x28>
 8001d1e:	4b03      	ldr	r3, [pc, #12]	@ (8001d2c <ModbusRTU_WriteRegister+0xdc>)
 8001d20:	70d8      	strb	r0, [r3, #3]
 8001d22:	e7dc      	b.n	8001cde <ModbusRTU_WriteRegister+0x8e>
 8001d24:	42c80000 	.word	0x42c80000
 8001d28:	20000000 	.word	0x20000000
 8001d2c:	20000004 	.word	0x20000004

08001d30 <ModbusRTU_ReadHoldingRegisters>:
 8001d30:	2908      	cmp	r1, #8
 8001d32:	e92d 41f0 	stmdb	sp!, {r4, r5, r6, r7, r8, lr}
 8001d36:	d13a      	bne.n	8001dae <ModbusRTU_ReadHoldingRegisters+0x7e>
 8001d38:	8885      	ldrh	r5, [r0, #4]
 8001d3a:	f8b0 8002 	ldrh.w	r8, [r0, #2]
 8001d3e:	ba6d      	rev16	r5, r5
 8001d40:	b2ad      	uxth	r5, r5
 8001d42:	1e6b      	subs	r3, r5, #1
 8001d44:	fa98 f898 	rev16.w	r8, r8
 8001d48:	2b7c      	cmp	r3, #124	@ 0x7c
 8001d4a:	fa1f f888 	uxth.w	r8, r8
 8001d4e:	d906      	bls.n	8001d5e <ModbusRTU_ReadHoldingRegisters+0x2e>
 8001d50:	2103      	movs	r1, #3
 8001d52:	4608      	mov	r0, r1
 8001d54:	f7ff fd68 	bl	8001828 <ModbusRTU_SendException>
 8001d58:	2006      	movs	r0, #6
 8001d5a:	e8bd 81f0 	ldmia.w	sp!, {r4, r5, r6, r7, r8, pc}
 8001d5e:	4c15      	ldr	r4, [pc, #84]	@ (8001db4 <ModbusRTU_ReadHoldingRegisters+0x84>)
 8001d60:	2700      	movs	r7, #0
 8001d62:	7922      	ldrb	r2, [r4, #4]
 8001d64:	006e      	lsls	r6, r5, #1
 8001d66:	f884 2105 	strb.w	r2, [r4, #261]	@ 0x105
 8001d6a:	2203      	movs	r2, #3
 8001d6c:	f884 6107 	strb.w	r6, [r4, #263]	@ 0x107
 8001d70:	f884 2106 	strb.w	r2, [r4, #262]	@ 0x106
 8001d74:	eb08 0007 	add.w	r0, r8, r7
 8001d78:	b280      	uxth	r0, r0
 8001d7a:	f7ff fd67 	bl	800184c <ModbusRTU_ReadRegister>
 8001d7e:	3701      	adds	r7, #1
 8001d80:	0a03      	lsrs	r3, r0, #8
 8001d82:	f884 3108 	strb.w	r3, [r4, #264]	@ 0x108
 8001d86:	b2bb      	uxth	r3, r7
 8001d88:	42ab      	cmp	r3, r5
 8001d8a:	f884 0109 	strb.w	r0, [r4, #265]	@ 0x109
 8001d8e:	f104 0402 	add.w	r4, r4, #2
 8001d92:	d3ef      	bcc.n	8001d74 <ModbusRTU_ReadHoldingRegisters+0x44>
 8001d94:	3603      	adds	r6, #3
 8001d96:	2d32      	cmp	r5, #50	@ 0x32
 8001d98:	b2b6      	uxth	r6, r6
 8001d9a:	d902      	bls.n	8001da2 <ModbusRTU_ReadHoldingRegisters+0x72>
 8001d9c:	2002      	movs	r0, #2
 8001d9e:	f000 fbd7 	bl	8002550 <HAL_Delay>
 8001da2:	4631      	mov	r1, r6
 8001da4:	e8bd 41f0 	ldmia.w	sp!, {r4, r5, r6, r7, r8, lr}
 8001da8:	4803      	ldr	r0, [pc, #12]	@ (8001db8 <ModbusRTU_ReadHoldingRegisters+0x88>)
 8001daa:	f7ff bcf7 	b.w	800179c <ModbusRTU_SendResponse>
 8001dae:	2003      	movs	r0, #3
 8001db0:	e7d3      	b.n	8001d5a <ModbusRTU_ReadHoldingRegisters+0x2a>
 8001db2:	bf00      	nop
 8001db4:	2000057c 	.word	0x2000057c
 8001db8:	20000681 	.word	0x20000681

08001dbc <ModbusRTU_WriteSingleRegister>:
 8001dbc:	2908      	cmp	r1, #8
 8001dbe:	b538      	push	{r3, r4, r5, lr}
 8001dc0:	4605      	mov	r5, r0
 8001dc2:	d11c      	bne.n	8001dfe <ModbusRTU_WriteSingleRegister+0x42>
 8001dc4:	8881      	ldrh	r1, [r0, #4]
 8001dc6:	8840      	ldrh	r0, [r0, #2]
 8001dc8:	ba49      	rev16	r1, r1
 8001dca:	ba40      	rev16	r0, r0
 8001dcc:	b289      	uxth	r1, r1
 8001dce:	b280      	uxth	r0, r0
 8001dd0:	f7ff ff3e 	bl	8001c50 <ModbusRTU_WriteRegister>
 8001dd4:	4604      	mov	r4, r0
 8001dd6:	b160      	cbz	r0, 8001df2 <ModbusRTU_WriteSingleRegister+0x36>
 8001dd8:	2805      	cmp	r0, #5
 8001dda:	d008      	beq.n	8001dee <ModbusRTU_WriteSingleRegister+0x32>
 8001ddc:	2806      	cmp	r0, #6
 8001dde:	bf0c      	ite	eq
 8001de0:	2103      	moveq	r1, #3
 8001de2:	2104      	movne	r1, #4
 8001de4:	2006      	movs	r0, #6
 8001de6:	f7ff fd1f 	bl	8001828 <ModbusRTU_SendException>
 8001dea:	4620      	mov	r0, r4
 8001dec:	bd38      	pop	{r3, r4, r5, pc}
 8001dee:	2102      	movs	r1, #2
 8001df0:	e7f8      	b.n	8001de4 <ModbusRTU_WriteSingleRegister+0x28>
 8001df2:	4628      	mov	r0, r5
 8001df4:	e8bd 4038 	ldmia.w	sp!, {r3, r4, r5, lr}
 8001df8:	2106      	movs	r1, #6
 8001dfa:	f7ff bccf 	b.w	800179c <ModbusRTU_SendResponse>
 8001dfe:	2403      	movs	r4, #3
 8001e00:	e7f3      	b.n	8001dea <ModbusRTU_WriteSingleRegister+0x2e>
	...

08001e04 <ModbusRTU_WriteMultipleRegisters>:
 8001e04:	2908      	cmp	r1, #8
 8001e06:	e92d 41f0 	stmdb	sp!, {r4, r5, r6, r7, r8, lr}
 8001e0a:	4604      	mov	r4, r0
 8001e0c:	d94f      	bls.n	8001eae <ModbusRTU_WriteMultipleRegisters+0xaa>
 8001e0e:	8886      	ldrh	r6, [r0, #4]
 8001e10:	8847      	ldrh	r7, [r0, #2]
 8001e12:	ba76      	rev16	r6, r6
 8001e14:	b2b6      	uxth	r6, r6
 8001e16:	1e72      	subs	r2, r6, #1
 8001e18:	2a7a      	cmp	r2, #122	@ 0x7a
 8001e1a:	7983      	ldrb	r3, [r0, #6]
 8001e1c:	d802      	bhi.n	8001e24 <ModbusRTU_WriteMultipleRegisters+0x20>
 8001e1e:	ebb3 0f46 	cmp.w	r3, r6, lsl #1
 8001e22:	d007      	beq.n	8001e34 <ModbusRTU_WriteMultipleRegisters+0x30>
 8001e24:	2103      	movs	r1, #3
 8001e26:	2010      	movs	r0, #16
 8001e28:	f7ff fcfe 	bl	8001828 <ModbusRTU_SendException>
 8001e2c:	2506      	movs	r5, #6
 8001e2e:	4628      	mov	r0, r5
 8001e30:	e8bd 81f0 	ldmia.w	sp!, {r4, r5, r6, r7, r8, pc}
 8001e34:	3309      	adds	r3, #9
 8001e36:	4299      	cmp	r1, r3
 8001e38:	d139      	bne.n	8001eae <ModbusRTU_WriteMultipleRegisters+0xaa>
 8001e3a:	f04f 0800 	mov.w	r8, #0
 8001e3e:	ba7f      	rev16	r7, r7
 8001e40:	b2bf      	uxth	r7, r7
 8001e42:	79e1      	ldrb	r1, [r4, #7]
 8001e44:	7a23      	ldrb	r3, [r4, #8]
 8001e46:	eb07 0008 	add.w	r0, r7, r8
 8001e4a:	ea43 2101 	orr.w	r1, r3, r1, lsl #8
 8001e4e:	b280      	uxth	r0, r0
 8001e50:	f7ff fefe 	bl	8001c50 <ModbusRTU_WriteRegister>
 8001e54:	4605      	mov	r5, r0
 8001e56:	b158      	cbz	r0, 8001e70 <ModbusRTU_WriteMultipleRegisters+0x6c>
 8001e58:	2805      	cmp	r0, #5
 8001e5a:	d007      	beq.n	8001e6c <ModbusRTU_WriteMultipleRegisters+0x68>
 8001e5c:	2806      	cmp	r0, #6
 8001e5e:	bf0c      	ite	eq
 8001e60:	2103      	moveq	r1, #3
 8001e62:	2104      	movne	r1, #4
 8001e64:	2010      	movs	r0, #16
 8001e66:	f7ff fcdf 	bl	8001828 <ModbusRTU_SendException>
 8001e6a:	e7e0      	b.n	8001e2e <ModbusRTU_WriteMultipleRegisters+0x2a>
 8001e6c:	2102      	movs	r1, #2
 8001e6e:	e7f9      	b.n	8001e64 <ModbusRTU_WriteMultipleRegisters+0x60>
 8001e70:	f108 0801 	add.w	r8, r8, #1
 8001e74:	fa1f f388 	uxth.w	r3, r8
 8001e78:	429e      	cmp	r6, r3
 8001e7a:	f104 0402 	add.w	r4, r4, #2
 8001e7e:	d8e0      	bhi.n	8001e42 <ModbusRTU_WriteMultipleRegisters+0x3e>
 8001e80:	480c      	ldr	r0, [pc, #48]	@ (8001eb4 <ModbusRTU_WriteMultipleRegisters+0xb0>)
 8001e82:	2106      	movs	r1, #6
 8001e84:	7902      	ldrb	r2, [r0, #4]
 8001e86:	f880 7108 	strb.w	r7, [r0, #264]	@ 0x108
 8001e8a:	f880 2105 	strb.w	r2, [r0, #261]	@ 0x105
 8001e8e:	2210      	movs	r2, #16
 8001e90:	f880 2106 	strb.w	r2, [r0, #262]	@ 0x106
 8001e94:	0a3a      	lsrs	r2, r7, #8
 8001e96:	f880 2107 	strb.w	r2, [r0, #263]	@ 0x107
 8001e9a:	f880 5109 	strb.w	r5, [r0, #265]	@ 0x109
 8001e9e:	f880 610a 	strb.w	r6, [r0, #266]	@ 0x10a
 8001ea2:	e8bd 41f0 	ldmia.w	sp!, {r4, r5, r6, r7, r8, lr}
 8001ea6:	f200 1005 	addw	r0, r0, #261	@ 0x105
 8001eaa:	f7ff bc77 	b.w	800179c <ModbusRTU_SendResponse>
 8001eae:	2503      	movs	r5, #3
 8001eb0:	e7bd      	b.n	8001e2e <ModbusRTU_WriteMultipleRegisters+0x2a>
 8001eb2:	bf00      	nop
 8001eb4:	2000057c 	.word	0x2000057c

08001eb8 <ModbusRTU_ProcessFrame>:
 8001eb8:	b5f8      	push	{r3, r4, r5, r6, r7, lr}
 8001eba:	2401      	movs	r4, #1
 8001ebc:	4d23      	ldr	r5, [pc, #140]	@ (8001f4c <ModbusRTU_ProcessFrame+0x94>)
 8001ebe:	2903      	cmp	r1, #3
 8001ec0:	4606      	mov	r6, r0
 8001ec2:	460f      	mov	r7, r1
 8001ec4:	702c      	strb	r4, [r5, #0]
 8001ec6:	d808      	bhi.n	8001eda <ModbusRTU_ProcessFrame+0x22>
 8001ec8:	4821      	ldr	r0, [pc, #132]	@ (8001f50 <ModbusRTU_ProcessFrame+0x98>)
 8001eca:	f44f 4100 	mov.w	r1, #32768	@ 0x8000
 8001ece:	f000 fd00 	bl	80028d2 <HAL_GPIO_TogglePin>
 8001ed2:	2300      	movs	r3, #0
 8001ed4:	2003      	movs	r0, #3
 8001ed6:	702b      	strb	r3, [r5, #0]
 8001ed8:	bdf8      	pop	{r3, r4, r5, r6, r7, pc}
 8001eda:	4b1e      	ldr	r3, [pc, #120]	@ (8001f54 <ModbusRTU_ProcessFrame+0x9c>)
 8001edc:	7802      	ldrb	r2, [r0, #0]
 8001ede:	791b      	ldrb	r3, [r3, #4]
 8001ee0:	429a      	cmp	r2, r3
 8001ee2:	d002      	beq.n	8001eea <ModbusRTU_ProcessFrame+0x32>
 8001ee4:	2000      	movs	r0, #0
 8001ee6:	7028      	strb	r0, [r5, #0]
 8001ee8:	e7f6      	b.n	8001ed8 <ModbusRTU_ProcessFrame+0x20>
 8001eea:	f7ff fc41 	bl	8001770 <ModbusRTU_CheckCRC>
 8001eee:	b910      	cbnz	r0, 8001ef6 <ModbusRTU_ProcessFrame+0x3e>
 8001ef0:	7028      	strb	r0, [r5, #0]
 8001ef2:	2002      	movs	r0, #2
 8001ef4:	e7f0      	b.n	8001ed8 <ModbusRTU_ProcessFrame+0x20>
 8001ef6:	4816      	ldr	r0, [pc, #88]	@ (8001f50 <ModbusRTU_ProcessFrame+0x98>)
 8001ef8:	4622      	mov	r2, r4
 8001efa:	f44f 4180 	mov.w	r1, #16384	@ 0x4000
 8001efe:	f000 fce3 	bl	80028c8 <HAL_GPIO_WritePin>
 8001f02:	7870      	ldrb	r0, [r6, #1]
 8001f04:	2806      	cmp	r0, #6
 8001f06:	d008      	beq.n	8001f1a <ModbusRTU_ProcessFrame+0x62>
 8001f08:	2810      	cmp	r0, #16
 8001f0a:	d016      	beq.n	8001f3a <ModbusRTU_ProcessFrame+0x82>
 8001f0c:	2803      	cmp	r0, #3
 8001f0e:	d005      	beq.n	8001f1c <ModbusRTU_ProcessFrame+0x64>
 8001f10:	2101      	movs	r1, #1
 8001f12:	f7ff fc89 	bl	8001828 <ModbusRTU_SendException>
 8001f16:	2004      	movs	r0, #4
 8001f18:	e7de      	b.n	8001ed8 <ModbusRTU_ProcessFrame+0x20>
 8001f1a:	2402      	movs	r4, #2
 8001f1c:	4b0e      	ldr	r3, [pc, #56]	@ (8001f58 <ModbusRTU_ProcessFrame+0xa0>)
 8001f1e:	791b      	ldrb	r3, [r3, #4]
 8001f20:	421c      	tst	r4, r3
 8001f22:	d0f5      	beq.n	8001f10 <ModbusRTU_ProcessFrame+0x58>
 8001f24:	2806      	cmp	r0, #6
 8001f26:	4639      	mov	r1, r7
 8001f28:	d009      	beq.n	8001f3e <ModbusRTU_ProcessFrame+0x86>
 8001f2a:	2810      	cmp	r0, #16
 8001f2c:	4630      	mov	r0, r6
 8001f2e:	d00a      	beq.n	8001f46 <ModbusRTU_ProcessFrame+0x8e>
 8001f30:	f7ff fefe 	bl	8001d30 <ModbusRTU_ReadHoldingRegisters>
 8001f34:	2300      	movs	r3, #0
 8001f36:	702b      	strb	r3, [r5, #0]
 8001f38:	e7ce      	b.n	8001ed8 <ModbusRTU_ProcessFrame+0x20>
 8001f3a:	2404      	movs	r4, #4
 8001f3c:	e7ee      	b.n	8001f1c <ModbusRTU_ProcessFrame+0x64>
 8001f3e:	4630      	mov	r0, r6
 8001f40:	f7ff ff3c 	bl	8001dbc <ModbusRTU_WriteSingleRegister>
 8001f44:	e7f6      	b.n	8001f34 <ModbusRTU_ProcessFrame+0x7c>
 8001f46:	f7ff ff5d 	bl	8001e04 <ModbusRTU_WriteMultipleRegisters>
 8001f4a:	e7f3      	b.n	8001f34 <ModbusRTU_ProcessFrame+0x7c>
 8001f4c:	20000578 	.word	0x20000578
 8001f50:	40011000 	.word	0x40011000
 8001f54:	2000057c 	.word	0x2000057c
 8001f58:	20000004 	.word	0x20000004

08001f5c <ModbusRTU_RxCpltCallback>:
 8001f5c:	b538      	push	{r3, r4, r5, lr}
 8001f5e:	4c12      	ldr	r4, [pc, #72]	@ (8001fa8 <ModbusRTU_RxCpltCallback+0x4c>)
 8001f60:	6825      	ldr	r5, [r4, #0]
 8001f62:	4285      	cmp	r5, r0
 8001f64:	d11f      	bne.n	8001fa6 <ModbusRTU_RxCpltCallback+0x4a>
 8001f66:	f000 faed 	bl	8002544 <HAL_GetTick>
 8001f6a:	f8b4 3206 	ldrh.w	r3, [r4, #518]	@ 0x206
 8001f6e:	f8c4 020c 	str.w	r0, [r4, #524]	@ 0x20c
 8001f72:	2bfe      	cmp	r3, #254	@ 0xfe
 8001f74:	d813      	bhi.n	8001f9e <ModbusRTU_RxCpltCallback+0x42>
 8001f76:	682a      	ldr	r2, [r5, #0]
 8001f78:	1c59      	adds	r1, r3, #1
 8001f7a:	6852      	ldr	r2, [r2, #4]
 8001f7c:	4423      	add	r3, r4
 8001f7e:	715a      	strb	r2, [r3, #5]
 8001f80:	2301      	movs	r3, #1
 8001f82:	f8a4 1206 	strh.w	r1, [r4, #518]	@ 0x206
 8001f86:	f8b4 1206 	ldrh.w	r1, [r4, #518]	@ 0x206
 8001f8a:	6820      	ldr	r0, [r4, #0]
 8001f8c:	3105      	adds	r1, #5
 8001f8e:	f884 320a 	strb.w	r3, [r4, #522]	@ 0x20a
 8001f92:	4421      	add	r1, r4
 8001f94:	2201      	movs	r2, #1
 8001f96:	e8bd 4038 	ldmia.w	sp!, {r3, r4, r5, lr}
 8001f9a:	f002 bd3c 	b.w	8004a16 <HAL_UART_Receive_IT>
 8001f9e:	2300      	movs	r3, #0
 8001fa0:	f8a4 3206 	strh.w	r3, [r4, #518]	@ 0x206
 8001fa4:	e7ef      	b.n	8001f86 <ModbusRTU_RxCpltCallback+0x2a>
 8001fa6:	bd38      	pop	{r3, r4, r5, pc}
 8001fa8:	2000057c 	.word	0x2000057c

08001fac <ModbusRTU_Reset>:
 8001fac:	b538      	push	{r3, r4, r5, lr}
 8001fae:	2300      	movs	r3, #0
 8001fb0:	4c0a      	ldr	r4, [pc, #40]	@ (8001fdc <ModbusRTU_Reset+0x30>)
 8001fb2:	4625      	mov	r5, r4
 8001fb4:	f8a4 3206 	strh.w	r3, [r4, #518]	@ 0x206
 8001fb8:	f884 320a 	strb.w	r3, [r4, #522]	@ 0x20a
 8001fbc:	f000 fac2 	bl	8002544 <HAL_GetTick>
 8001fc0:	f8c4 020c 	str.w	r0, [r4, #524]	@ 0x20c
 8001fc4:	f855 0b05 	ldr.w	r0, [r5], #5
 8001fc8:	f002 fa8a 	bl	80044e0 <HAL_UART_Abort>
 8001fcc:	4629      	mov	r1, r5
 8001fce:	6820      	ldr	r0, [r4, #0]
 8001fd0:	2201      	movs	r2, #1
 8001fd2:	e8bd 4038 	ldmia.w	sp!, {r3, r4, r5, lr}
 8001fd6:	f002 bd1e 	b.w	8004a16 <HAL_UART_Receive_IT>
 8001fda:	bf00      	nop
 8001fdc:	2000057c 	.word	0x2000057c

08001fe0 <ModbusRTU_ErrorCallback>:
 8001fe0:	b508      	push	{r3, lr}
 8001fe2:	4b07      	ldr	r3, [pc, #28]	@ (8002000 <ModbusRTU_ErrorCallback+0x20>)
 8001fe4:	681b      	ldr	r3, [r3, #0]
 8001fe6:	4283      	cmp	r3, r0
 8001fe8:	d108      	bne.n	8001ffc <ModbusRTU_ErrorCallback+0x1c>
 8001fea:	f44f 4100 	mov.w	r1, #32768	@ 0x8000
 8001fee:	4805      	ldr	r0, [pc, #20]	@ (8002004 <ModbusRTU_ErrorCallback+0x24>)
 8001ff0:	f000 fc6f 	bl	80028d2 <HAL_GPIO_TogglePin>
 8001ff4:	e8bd 4008 	ldmia.w	sp!, {r3, lr}
 8001ff8:	f7ff bfd8 	b.w	8001fac <ModbusRTU_Reset>
 8001ffc:	bd08      	pop	{r3, pc}
 8001ffe:	bf00      	nop
 8002000:	2000057c 	.word	0x2000057c
 8002004:	40011000 	.word	0x40011000

08002008 <ModbusRTU_Process>:
 8002008:	b538      	push	{r3, r4, r5, lr}
 800200a:	4c1b      	ldr	r4, [pc, #108]	@ (8002078 <ModbusRTU_Process+0x70>)
 800200c:	f894 520a 	ldrb.w	r5, [r4, #522]	@ 0x20a
 8002010:	f8b4 1206 	ldrh.w	r1, [r4, #518]	@ 0x206
 8002014:	b1ed      	cbz	r5, 8002052 <ModbusRTU_Process+0x4a>
 8002016:	b171      	cbz	r1, 8002036 <ModbusRTU_Process+0x2e>
 8002018:	2903      	cmp	r1, #3
 800201a:	d902      	bls.n	8002022 <ModbusRTU_Process+0x1a>
 800201c:	1d60      	adds	r0, r4, #5
 800201e:	f7ff ff4b 	bl	8001eb8 <ModbusRTU_ProcessFrame>
 8002022:	2100      	movs	r1, #0
 8002024:	f44f 7280 	mov.w	r2, #256	@ 0x100
 8002028:	4814      	ldr	r0, [pc, #80]	@ (800207c <ModbusRTU_Process+0x74>)
 800202a:	f8a4 1206 	strh.w	r1, [r4, #518]	@ 0x206
 800202e:	f884 120a 	strb.w	r1, [r4, #522]	@ 0x20a
 8002032:	f003 fb2b 	bl	800568c <memset>
 8002036:	6820      	ldr	r0, [r4, #0]
 8002038:	f890 3042 	ldrb.w	r3, [r0, #66]	@ 0x42
 800203c:	2b20      	cmp	r3, #32
 800203e:	d11a      	bne.n	8002076 <ModbusRTU_Process+0x6e>
 8002040:	f8b4 3206 	ldrh.w	r3, [r4, #518]	@ 0x206
 8002044:	b9bb      	cbnz	r3, 8002076 <ModbusRTU_Process+0x6e>
 8002046:	e8bd 4038 	ldmia.w	sp!, {r3, r4, r5, lr}
 800204a:	2201      	movs	r2, #1
 800204c:	490b      	ldr	r1, [pc, #44]	@ (800207c <ModbusRTU_Process+0x74>)
 800204e:	f002 bce2 	b.w	8004a16 <HAL_UART_Receive_IT>
 8002052:	2900      	cmp	r1, #0
 8002054:	d0ef      	beq.n	8002036 <ModbusRTU_Process+0x2e>
 8002056:	f000 fa75 	bl	8002544 <HAL_GetTick>
 800205a:	f8d4 320c 	ldr.w	r3, [r4, #524]	@ 0x20c
 800205e:	1ac0      	subs	r0, r0, r3
 8002060:	2832      	cmp	r0, #50	@ 0x32
 8002062:	d9e8      	bls.n	8002036 <ModbusRTU_Process+0x2e>
 8002064:	f44f 7280 	mov.w	r2, #256	@ 0x100
 8002068:	4629      	mov	r1, r5
 800206a:	f8a4 5206 	strh.w	r5, [r4, #518]	@ 0x206
 800206e:	f884 520a 	strb.w	r5, [r4, #522]	@ 0x20a
 8002072:	1d60      	adds	r0, r4, #5
 8002074:	e7dd      	b.n	8002032 <ModbusRTU_Process+0x2a>
 8002076:	bd38      	pop	{r3, r4, r5, pc}
 8002078:	2000057c 	.word	0x2000057c
 800207c:	20000581 	.word	0x20000581

08002080 <Calculate_CRC.constprop.0>:
 8002080:	f64f 70ff 	movw	r0, #65535	@ 0xffff
 8002084:	2300      	movs	r3, #0
 8002086:	b530      	push	{r4, r5, lr}
 8002088:	4c08      	ldr	r4, [pc, #32]	@ (80020ac <Calculate_CRC.constprop.0+0x2c>)
 800208a:	4d09      	ldr	r5, [pc, #36]	@ (80020b0 <Calculate_CRC.constprop.0+0x30>)
 800208c:	f814 2b01 	ldrb.w	r2, [r4], #1
 8002090:	4050      	eors	r0, r2
 8002092:	2208      	movs	r2, #8
 8002094:	f340 0100 	sbfx	r1, r0, #0, #1
 8002098:	4029      	ands	r1, r5
 800209a:	ea81 0050 	eor.w	r0, r1, r0, lsr #1
 800209e:	3a01      	subs	r2, #1
 80020a0:	b280      	uxth	r0, r0
 80020a2:	d1f7      	bne.n	8002094 <Calculate_CRC.constprop.0+0x14>
 80020a4:	3301      	adds	r3, #1
 80020a6:	2b06      	cmp	r3, #6
 80020a8:	d1f0      	bne.n	800208c <Calculate_CRC.constprop.0+0xc>
 80020aa:	bd30      	pop	{r4, r5, pc}
 80020ac:	2000078c 	.word	0x2000078c
 80020b0:	ffffa001 	.word	0xffffa001

080020b4 <SK60X_Send_Command>:
 80020b4:	2200      	movs	r2, #0
 80020b6:	4b0d      	ldr	r3, [pc, #52]	@ (80020ec <SK60X_Send_Command+0x38>)
 80020b8:	b510      	push	{r4, lr}
 80020ba:	601a      	str	r2, [r3, #0]
 80020bc:	809a      	strh	r2, [r3, #4]
 80020be:	2201      	movs	r2, #1
 80020c0:	1e9c      	subs	r4, r3, #2
 80020c2:	f803 2c02 	strb.w	r2, [r3, #-2]
 80020c6:	2306      	movs	r3, #6
 80020c8:	7161      	strb	r1, [r4, #5]
 80020ca:	7063      	strb	r3, [r4, #1]
 80020cc:	70e0      	strb	r0, [r4, #3]
 80020ce:	f7ff ffd7 	bl	8002080 <Calculate_CRC.constprop.0>
 80020d2:	71a0      	strb	r0, [r4, #6]
 80020d4:	0a00      	lsrs	r0, r0, #8
 80020d6:	71e0      	strb	r0, [r4, #7]
 80020d8:	2364      	movs	r3, #100	@ 0x64
 80020da:	2208      	movs	r2, #8
 80020dc:	4621      	mov	r1, r4
 80020de:	4804      	ldr	r0, [pc, #16]	@ (80020f0 <SK60X_Send_Command+0x3c>)
 80020e0:	f002 f959 	bl	8004396 <HAL_UART_Transmit>
 80020e4:	fab0 f080 	clz	r0, r0
 80020e8:	0940      	lsrs	r0, r0, #5
 80020ea:	bd10      	pop	{r4, pc}
 80020ec:	2000078e 	.word	0x2000078e
 80020f0:	2000044c 	.word	0x2000044c

080020f4 <SK60X_Read_Data>:
 80020f4:	b570      	push	{r4, r5, r6, lr}
 80020f6:	4c2b      	ldr	r4, [pc, #172]	@ (80021a4 <SK60X_Read_Data+0xb0>)
 80020f8:	2100      	movs	r1, #0
 80020fa:	222a      	movs	r2, #42	@ 0x2a
 80020fc:	4620      	mov	r0, r4
 80020fe:	f003 fac5 	bl	800568c <memset>
 8002102:	2501      	movs	r5, #1
 8002104:	2200      	movs	r2, #0
 8002106:	4b28      	ldr	r3, [pc, #160]	@ (80021a8 <SK60X_Read_Data+0xb4>)
 8002108:	1e9e      	subs	r6, r3, #2
 800210a:	601a      	str	r2, [r3, #0]
 800210c:	809a      	strh	r2, [r3, #4]
 800210e:	f803 5c02 	strb.w	r5, [r3, #-2]
 8002112:	2303      	movs	r3, #3
 8002114:	7073      	strb	r3, [r6, #1]
 8002116:	2313      	movs	r3, #19
 8002118:	7173      	strb	r3, [r6, #5]
 800211a:	f7ff ffb1 	bl	8002080 <Calculate_CRC.constprop.0>
 800211e:	0a03      	lsrs	r3, r0, #8
 8002120:	71b0      	strb	r0, [r6, #6]
 8002122:	71f3      	strb	r3, [r6, #7]
 8002124:	2208      	movs	r2, #8
 8002126:	2364      	movs	r3, #100	@ 0x64
 8002128:	4631      	mov	r1, r6
 800212a:	4820      	ldr	r0, [pc, #128]	@ (80021ac <SK60X_Read_Data+0xb8>)
 800212c:	f002 f933 	bl	8004396 <HAL_UART_Transmit>
 8002130:	b108      	cbz	r0, 8002136 <SK60X_Read_Data+0x42>
 8002132:	2000      	movs	r0, #0
 8002134:	bd70      	pop	{r4, r5, r6, pc}
 8002136:	f44f 73fa 	mov.w	r3, #500	@ 0x1f4
 800213a:	222a      	movs	r2, #42	@ 0x2a
 800213c:	4621      	mov	r1, r4
 800213e:	481b      	ldr	r0, [pc, #108]	@ (80021ac <SK60X_Read_Data+0xb8>)
 8002140:	f002 f977 	bl	8004432 <HAL_UART_Receive>
 8002144:	2800      	cmp	r0, #0
 8002146:	d1f4      	bne.n	8002132 <SK60X_Read_Data+0x3e>
 8002148:	88a2      	ldrh	r2, [r4, #4]
 800214a:	4b19      	ldr	r3, [pc, #100]	@ (80021b0 <SK60X_Read_Data+0xbc>)
 800214c:	ba52      	rev16	r2, r2
 800214e:	801a      	strh	r2, [r3, #0]
 8002150:	88e2      	ldrh	r2, [r4, #6]
 8002152:	4628      	mov	r0, r5
 8002154:	ba52      	rev16	r2, r2
 8002156:	805a      	strh	r2, [r3, #2]
 8002158:	8922      	ldrh	r2, [r4, #8]
 800215a:	ba52      	rev16	r2, r2
 800215c:	809a      	strh	r2, [r3, #4]
 800215e:	8962      	ldrh	r2, [r4, #10]
 8002160:	ba52      	rev16	r2, r2
 8002162:	80da      	strh	r2, [r3, #6]
 8002164:	89a2      	ldrh	r2, [r4, #12]
 8002166:	ba52      	rev16	r2, r2
 8002168:	811a      	strh	r2, [r3, #8]
 800216a:	89e2      	ldrh	r2, [r4, #14]
 800216c:	ba52      	rev16	r2, r2
 800216e:	815a      	strh	r2, [r3, #10]
 8002170:	8a22      	ldrh	r2, [r4, #16]
 8002172:	ba52      	rev16	r2, r2
 8002174:	819a      	strh	r2, [r3, #12]
 8002176:	8b22      	ldrh	r2, [r4, #24]
 8002178:	ba52      	rev16	r2, r2
 800217a:	825a      	strh	r2, [r3, #18]
 800217c:	8b62      	ldrh	r2, [r4, #26]
 800217e:	ba52      	rev16	r2, r2
 8002180:	829a      	strh	r2, [r3, #20]
 8002182:	8ba2      	ldrh	r2, [r4, #28]
 8002184:	ba52      	rev16	r2, r2
 8002186:	82da      	strh	r2, [r3, #22]
 8002188:	8be2      	ldrh	r2, [r4, #30]
 800218a:	ba52      	rev16	r2, r2
 800218c:	821a      	strh	r2, [r3, #16]
 800218e:	8c62      	ldrh	r2, [r4, #34]	@ 0x22
 8002190:	ba52      	rev16	r2, r2
 8002192:	81da      	strh	r2, [r3, #14]
 8002194:	8ce2      	ldrh	r2, [r4, #38]	@ 0x26
 8002196:	ba52      	rev16	r2, r2
 8002198:	831a      	strh	r2, [r3, #24]
 800219a:	8d22      	ldrh	r2, [r4, #40]	@ 0x28
 800219c:	ba52      	rev16	r2, r2
 800219e:	835a      	strh	r2, [r3, #26]
 80021a0:	e7c8      	b.n	8002134 <SK60X_Read_Data+0x40>
 80021a2:	bf00      	nop
 80021a4:	20000794 	.word	0x20000794
 80021a8:	2000078e 	.word	0x2000078e
 80021ac:	2000044c 	.word	0x2000044c
 80021b0:	200007be 	.word	0x200007be

080021b4 <SK60X_Set_On_Off>:
 80021b4:	2801      	cmp	r0, #1
 80021b6:	4601      	mov	r1, r0
 80021b8:	d802      	bhi.n	80021c0 <SK60X_Set_On_Off+0xc>
 80021ba:	2012      	movs	r0, #18
 80021bc:	f7ff bf7a 	b.w	80020b4 <SK60X_Send_Command>
 80021c0:	2000      	movs	r0, #0
 80021c2:	4770      	bx	lr

080021c4 <SK60X_Set_Lock>:
 80021c4:	2801      	cmp	r0, #1
 80021c6:	4601      	mov	r1, r0
 80021c8:	d802      	bhi.n	80021d0 <SK60X_Set_Lock+0xc>
 80021ca:	2011      	movs	r0, #17
 80021cc:	f7ff bf72 	b.w	80020b4 <SK60X_Send_Command>
 80021d0:	2000      	movs	r0, #0
 80021d2:	4770      	bx	lr

080021d4 <SK60X_Set_Voltage>:
 80021d4:	f640 32b8 	movw	r2, #3000	@ 0xbb8
 80021d8:	f5a0 7316 	sub.w	r3, r0, #600	@ 0x258
 80021dc:	b29b      	uxth	r3, r3
 80021de:	4293      	cmp	r3, r2
 80021e0:	4601      	mov	r1, r0
 80021e2:	d802      	bhi.n	80021ea <SK60X_Set_Voltage+0x16>
 80021e4:	2001      	movs	r0, #1
 80021e6:	f7ff bf65 	b.w	80020b4 <SK60X_Send_Command>
 80021ea:	2000      	movs	r0, #0
 80021ec:	4770      	bx	lr

080021ee <SK60X_Set_Current>:
 80021ee:	f5b0 7ffa 	cmp.w	r0, #500	@ 0x1f4
 80021f2:	4601      	mov	r1, r0
 80021f4:	d802      	bhi.n	80021fc <SK60X_Set_Current+0xe>
 80021f6:	2002      	movs	r0, #2
 80021f8:	f7ff bf5c 	b.w	80020b4 <SK60X_Send_Command>
 80021fc:	2000      	movs	r0, #0
 80021fe:	4770      	bx	lr

08002200 <HAL_MspInit>:
 8002200:	4b11      	ldr	r3, [pc, #68]	@ (8002248 <HAL_MspInit+0x48>)
 8002202:	b507      	push	{r0, r1, r2, lr}
 8002204:	699a      	ldr	r2, [r3, #24]
 8002206:	210f      	movs	r1, #15
 8002208:	f042 0201 	orr.w	r2, r2, #1
 800220c:	619a      	str	r2, [r3, #24]
 800220e:	699a      	ldr	r2, [r3, #24]
 8002210:	f06f 0001 	mvn.w	r0, #1
 8002214:	f002 0201 	and.w	r2, r2, #1
 8002218:	9200      	str	r2, [sp, #0]
 800221a:	9a00      	ldr	r2, [sp, #0]
 800221c:	69da      	ldr	r2, [r3, #28]
 800221e:	f042 5280 	orr.w	r2, r2, #268435456	@ 0x10000000
 8002222:	61da      	str	r2, [r3, #28]
 8002224:	69db      	ldr	r3, [r3, #28]
 8002226:	2200      	movs	r2, #0
 8002228:	f003 5380 	and.w	r3, r3, #268435456	@ 0x10000000
 800222c:	9301      	str	r3, [sp, #4]
 800222e:	9b01      	ldr	r3, [sp, #4]
 8002230:	f000 f9b2 	bl	8002598 <HAL_NVIC_SetPriority>
 8002234:	4a05      	ldr	r2, [pc, #20]	@ (800224c <HAL_MspInit+0x4c>)
 8002236:	6853      	ldr	r3, [r2, #4]
 8002238:	f023 63e0 	bic.w	r3, r3, #117440512	@ 0x7000000
 800223c:	f043 7300 	orr.w	r3, r3, #33554432	@ 0x2000000
 8002240:	6053      	str	r3, [r2, #4]
 8002242:	b003      	add	sp, #12
 8002244:	f85d fb04 	ldr.w	pc, [sp], #4
 8002248:	40021000 	.word	0x40021000
 800224c:	40010000 	.word	0x40010000

08002250 <HAL_I2C_MspInit>:
 8002250:	b510      	push	{r4, lr}
 8002252:	4604      	mov	r4, r0
 8002254:	b086      	sub	sp, #24
 8002256:	2210      	movs	r2, #16
 8002258:	2100      	movs	r1, #0
 800225a:	a802      	add	r0, sp, #8
 800225c:	f003 fa16 	bl	800568c <memset>
 8002260:	6822      	ldr	r2, [r4, #0]
 8002262:	4b15      	ldr	r3, [pc, #84]	@ (80022b8 <HAL_I2C_MspInit+0x68>)
 8002264:	429a      	cmp	r2, r3
 8002266:	d124      	bne.n	80022b2 <HAL_I2C_MspInit+0x62>
 8002268:	4c14      	ldr	r4, [pc, #80]	@ (80022bc <HAL_I2C_MspInit+0x6c>)
 800226a:	22c0      	movs	r2, #192	@ 0xc0
 800226c:	69a3      	ldr	r3, [r4, #24]
 800226e:	4814      	ldr	r0, [pc, #80]	@ (80022c0 <HAL_I2C_MspInit+0x70>)
 8002270:	f043 0308 	orr.w	r3, r3, #8
 8002274:	61a3      	str	r3, [r4, #24]
 8002276:	69a3      	ldr	r3, [r4, #24]
 8002278:	a902      	add	r1, sp, #8
 800227a:	f003 0308 	and.w	r3, r3, #8
 800227e:	9300      	str	r3, [sp, #0]
 8002280:	9b00      	ldr	r3, [sp, #0]
 8002282:	2312      	movs	r3, #18
 8002284:	e9cd 2302 	strd	r2, r3, [sp, #8]
 8002288:	2303      	movs	r3, #3
 800228a:	9305      	str	r3, [sp, #20]
 800228c:	f000 fa42 	bl	8002714 <HAL_GPIO_Init>
 8002290:	69e3      	ldr	r3, [r4, #28]
 8002292:	201f      	movs	r0, #31
 8002294:	f443 1300 	orr.w	r3, r3, #2097152	@ 0x200000
 8002298:	61e3      	str	r3, [r4, #28]
 800229a:	69e3      	ldr	r3, [r4, #28]
 800229c:	2200      	movs	r2, #0
 800229e:	f403 1300 	and.w	r3, r3, #2097152	@ 0x200000
 80022a2:	9301      	str	r3, [sp, #4]
 80022a4:	2105      	movs	r1, #5
 80022a6:	9b01      	ldr	r3, [sp, #4]
 80022a8:	f000 f976 	bl	8002598 <HAL_NVIC_SetPriority>
 80022ac:	201f      	movs	r0, #31
 80022ae:	f000 f9a3 	bl	80025f8 <HAL_NVIC_EnableIRQ>
 80022b2:	b006      	add	sp, #24
 80022b4:	bd10      	pop	{r4, pc}
 80022b6:	bf00      	nop
 80022b8:	40005400 	.word	0x40005400
 80022bc:	40021000 	.word	0x40021000
 80022c0:	40010c00 	.word	0x40010c00

080022c4 <HAL_UART_MspInit>:
 80022c4:	b510      	push	{r4, lr}
 80022c6:	4604      	mov	r4, r0
 80022c8:	b08a      	sub	sp, #40	@ 0x28
 80022ca:	2210      	movs	r2, #16
 80022cc:	2100      	movs	r1, #0
 80022ce:	a806      	add	r0, sp, #24
 80022d0:	f003 f9dc 	bl	800568c <memset>
 80022d4:	6823      	ldr	r3, [r4, #0]
 80022d6:	4a4b      	ldr	r2, [pc, #300]	@ (8002404 <HAL_UART_MspInit+0x140>)
 80022d8:	4293      	cmp	r3, r2
 80022da:	d131      	bne.n	8002340 <HAL_UART_MspInit+0x7c>
 80022dc:	4b4a      	ldr	r3, [pc, #296]	@ (8002408 <HAL_UART_MspInit+0x144>)
 80022de:	f44f 7000 	mov.w	r0, #512	@ 0x200
 80022e2:	699a      	ldr	r2, [r3, #24]
 80022e4:	a906      	add	r1, sp, #24
 80022e6:	f442 4280 	orr.w	r2, r2, #16384	@ 0x4000
 80022ea:	619a      	str	r2, [r3, #24]
 80022ec:	699a      	ldr	r2, [r3, #24]
 80022ee:	2400      	movs	r4, #0
 80022f0:	f402 4280 	and.w	r2, r2, #16384	@ 0x4000
 80022f4:	9200      	str	r2, [sp, #0]
 80022f6:	9a00      	ldr	r2, [sp, #0]
 80022f8:	699a      	ldr	r2, [r3, #24]
 80022fa:	f042 0204 	orr.w	r2, r2, #4
 80022fe:	619a      	str	r2, [r3, #24]
 8002300:	699b      	ldr	r3, [r3, #24]
 8002302:	f003 0304 	and.w	r3, r3, #4
 8002306:	9301      	str	r3, [sp, #4]
 8002308:	9b01      	ldr	r3, [sp, #4]
 800230a:	2302      	movs	r3, #2
 800230c:	e9cd 0306 	strd	r0, r3, [sp, #24]
 8002310:	2303      	movs	r3, #3
 8002312:	483e      	ldr	r0, [pc, #248]	@ (800240c <HAL_UART_MspInit+0x148>)
 8002314:	9309      	str	r3, [sp, #36]	@ 0x24
 8002316:	f000 f9fd 	bl	8002714 <HAL_GPIO_Init>
 800231a:	f44f 6380 	mov.w	r3, #1024	@ 0x400
 800231e:	483b      	ldr	r0, [pc, #236]	@ (800240c <HAL_UART_MspInit+0x148>)
 8002320:	a906      	add	r1, sp, #24
 8002322:	e9cd 3406 	strd	r3, r4, [sp, #24]
 8002326:	9408      	str	r4, [sp, #32]
 8002328:	f000 f9f4 	bl	8002714 <HAL_GPIO_Init>
 800232c:	2025      	movs	r0, #37	@ 0x25
 800232e:	4622      	mov	r2, r4
 8002330:	2105      	movs	r1, #5
 8002332:	f000 f931 	bl	8002598 <HAL_NVIC_SetPriority>
 8002336:	2025      	movs	r0, #37	@ 0x25
 8002338:	f000 f95e 	bl	80025f8 <HAL_NVIC_EnableIRQ>
 800233c:	b00a      	add	sp, #40	@ 0x28
 800233e:	bd10      	pop	{r4, pc}
 8002340:	4a33      	ldr	r2, [pc, #204]	@ (8002410 <HAL_UART_MspInit+0x14c>)
 8002342:	4293      	cmp	r3, r2
 8002344:	d12c      	bne.n	80023a0 <HAL_UART_MspInit+0xdc>
 8002346:	4b30      	ldr	r3, [pc, #192]	@ (8002408 <HAL_UART_MspInit+0x144>)
 8002348:	2104      	movs	r1, #4
 800234a:	69da      	ldr	r2, [r3, #28]
 800234c:	482f      	ldr	r0, [pc, #188]	@ (800240c <HAL_UART_MspInit+0x148>)
 800234e:	f442 3200 	orr.w	r2, r2, #131072	@ 0x20000
 8002352:	61da      	str	r2, [r3, #28]
 8002354:	69da      	ldr	r2, [r3, #28]
 8002356:	2400      	movs	r4, #0
 8002358:	f402 3200 	and.w	r2, r2, #131072	@ 0x20000
 800235c:	9202      	str	r2, [sp, #8]
 800235e:	9a02      	ldr	r2, [sp, #8]
 8002360:	699a      	ldr	r2, [r3, #24]
 8002362:	f042 0204 	orr.w	r2, r2, #4
 8002366:	619a      	str	r2, [r3, #24]
 8002368:	699b      	ldr	r3, [r3, #24]
 800236a:	f003 0304 	and.w	r3, r3, #4
 800236e:	9303      	str	r3, [sp, #12]
 8002370:	9b03      	ldr	r3, [sp, #12]
 8002372:	2302      	movs	r3, #2
 8002374:	e9cd 1306 	strd	r1, r3, [sp, #24]
 8002378:	2303      	movs	r3, #3
 800237a:	a906      	add	r1, sp, #24
 800237c:	9309      	str	r3, [sp, #36]	@ 0x24
 800237e:	f000 f9c9 	bl	8002714 <HAL_GPIO_Init>
 8002382:	2308      	movs	r3, #8
 8002384:	4821      	ldr	r0, [pc, #132]	@ (800240c <HAL_UART_MspInit+0x148>)
 8002386:	a906      	add	r1, sp, #24
 8002388:	e9cd 3406 	strd	r3, r4, [sp, #24]
 800238c:	9408      	str	r4, [sp, #32]
 800238e:	f000 f9c1 	bl	8002714 <HAL_GPIO_Init>
 8002392:	2026      	movs	r0, #38	@ 0x26
 8002394:	4622      	mov	r2, r4
 8002396:	2105      	movs	r1, #5
 8002398:	f000 f8fe 	bl	8002598 <HAL_NVIC_SetPriority>
 800239c:	2026      	movs	r0, #38	@ 0x26
 800239e:	e7cb      	b.n	8002338 <HAL_UART_MspInit+0x74>
 80023a0:	4a1c      	ldr	r2, [pc, #112]	@ (8002414 <HAL_UART_MspInit+0x150>)
 80023a2:	4293      	cmp	r3, r2
 80023a4:	d1ca      	bne.n	800233c <HAL_UART_MspInit+0x78>
 80023a6:	4b18      	ldr	r3, [pc, #96]	@ (8002408 <HAL_UART_MspInit+0x144>)
 80023a8:	481b      	ldr	r0, [pc, #108]	@ (8002418 <HAL_UART_MspInit+0x154>)
 80023aa:	69da      	ldr	r2, [r3, #28]
 80023ac:	a906      	add	r1, sp, #24
 80023ae:	f442 2280 	orr.w	r2, r2, #262144	@ 0x40000
 80023b2:	61da      	str	r2, [r3, #28]
 80023b4:	69da      	ldr	r2, [r3, #28]
 80023b6:	2400      	movs	r4, #0
 80023b8:	f402 2280 	and.w	r2, r2, #262144	@ 0x40000
 80023bc:	9204      	str	r2, [sp, #16]
 80023be:	9a04      	ldr	r2, [sp, #16]
 80023c0:	699a      	ldr	r2, [r3, #24]
 80023c2:	f042 0208 	orr.w	r2, r2, #8
 80023c6:	619a      	str	r2, [r3, #24]
 80023c8:	699b      	ldr	r3, [r3, #24]
 80023ca:	f44f 6280 	mov.w	r2, #1024	@ 0x400
 80023ce:	f003 0308 	and.w	r3, r3, #8
 80023d2:	9305      	str	r3, [sp, #20]
 80023d4:	9b05      	ldr	r3, [sp, #20]
 80023d6:	2302      	movs	r3, #2
 80023d8:	e9cd 2306 	strd	r2, r3, [sp, #24]
 80023dc:	2303      	movs	r3, #3
 80023de:	9309      	str	r3, [sp, #36]	@ 0x24
 80023e0:	f000 f998 	bl	8002714 <HAL_GPIO_Init>
 80023e4:	f44f 6300 	mov.w	r3, #2048	@ 0x800
 80023e8:	480b      	ldr	r0, [pc, #44]	@ (8002418 <HAL_UART_MspInit+0x154>)
 80023ea:	a906      	add	r1, sp, #24
 80023ec:	e9cd 3406 	strd	r3, r4, [sp, #24]
 80023f0:	9408      	str	r4, [sp, #32]
 80023f2:	f000 f98f 	bl	8002714 <HAL_GPIO_Init>
 80023f6:	2027      	movs	r0, #39	@ 0x27
 80023f8:	4622      	mov	r2, r4
 80023fa:	2105      	movs	r1, #5
 80023fc:	f000 f8cc 	bl	8002598 <HAL_NVIC_SetPriority>
 8002400:	2027      	movs	r0, #39	@ 0x27
 8002402:	e799      	b.n	8002338 <HAL_UART_MspInit+0x74>
 8002404:	40013800 	.word	0x40013800
 8002408:	40021000 	.word	0x40021000
 800240c:	40010800 	.word	0x40010800
 8002410:	40004400 	.word	0x40004400
 8002414:	40004800 	.word	0x40004800
 8002418:	40010c00 	.word	0x40010c00

0800241c <NMI_Handler>:
 800241c:	e7fe      	b.n	800241c <NMI_Handler>

0800241e <HardFault_Handler>:
 800241e:	e7fe      	b.n	800241e <HardFault_Handler>

08002420 <MemManage_Handler>:
 8002420:	e7fe      	b.n	8002420 <MemManage_Handler>

08002422 <BusFault_Handler>:
 8002422:	e7fe      	b.n	8002422 <BusFault_Handler>

08002424 <UsageFault_Handler>:
 8002424:	e7fe      	b.n	8002424 <UsageFault_Handler>

08002426 <DebugMon_Handler>:
 8002426:	4770      	bx	lr

08002428 <SysTick_Handler>:
 8002428:	b508      	push	{r3, lr}
 800242a:	f000 f87f 	bl	800252c <HAL_IncTick>
 800242e:	f002 fef5 	bl	800521c <xTaskGetSchedulerState>
 8002432:	2801      	cmp	r0, #1
 8002434:	d003      	beq.n	800243e <SysTick_Handler+0x16>
 8002436:	e8bd 4008 	ldmia.w	sp!, {r3, lr}
 800243a:	f002 bfab 	b.w	8005394 <xPortSysTickHandler>
 800243e:	bd08      	pop	{r3, pc}

08002440 <I2C1_EV_IRQHandler>:
 8002440:	4801      	ldr	r0, [pc, #4]	@ (8002448 <I2C1_EV_IRQHandler+0x8>)
 8002442:	f001 b809 	b.w	8003458 <HAL_I2C_EV_IRQHandler>
 8002446:	bf00      	nop
 8002448:	20000524 	.word	0x20000524

0800244c <USART1_IRQHandler>:
 800244c:	4801      	ldr	r0, [pc, #4]	@ (8002454 <USART1_IRQHandler+0x8>)
 800244e:	f002 b97f 	b.w	8004750 <HAL_UART_IRQHandler>
 8002452:	bf00      	nop
 8002454:	200004dc 	.word	0x200004dc

08002458 <USART2_IRQHandler>:
 8002458:	4801      	ldr	r0, [pc, #4]	@ (8002460 <USART2_IRQHandler+0x8>)
 800245a:	f002 b979 	b.w	8004750 <HAL_UART_IRQHandler>
 800245e:	bf00      	nop
 8002460:	20000494 	.word	0x20000494

08002464 <USART3_IRQHandler>:
 8002464:	4801      	ldr	r0, [pc, #4]	@ (800246c <USART3_IRQHandler+0x8>)
 8002466:	f002 b973 	b.w	8004750 <HAL_UART_IRQHandler>
 800246a:	bf00      	nop
 800246c:	2000044c 	.word	0x2000044c

08002470 <SystemInit>:
 8002470:	4770      	bx	lr
	...

08002474 <Reset_Handler>:
 8002474:	f7ff fffc 	bl	8002470 <SystemInit>
 8002478:	480b      	ldr	r0, [pc, #44]	@ (80024a8 <LoopFillZerobss+0xe>)
 800247a:	490c      	ldr	r1, [pc, #48]	@ (80024ac <LoopFillZerobss+0x12>)
 800247c:	4a0c      	ldr	r2, [pc, #48]	@ (80024b0 <LoopFillZerobss+0x16>)
 800247e:	2300      	movs	r3, #0
 8002480:	e002      	b.n	8002488 <LoopCopyDataInit>

08002482 <CopyDataInit>:
 8002482:	58d4      	ldr	r4, [r2, r3]
 8002484:	50c4      	str	r4, [r0, r3]
 8002486:	3304      	adds	r3, #4

08002488 <LoopCopyDataInit>:
 8002488:	18c4      	adds	r4, r0, r3
 800248a:	428c      	cmp	r4, r1
 800248c:	d3f9      	bcc.n	8002482 <CopyDataInit>
 800248e:	4a09      	ldr	r2, [pc, #36]	@ (80024b4 <LoopFillZerobss+0x1a>)
 8002490:	4c09      	ldr	r4, [pc, #36]	@ (80024b8 <LoopFillZerobss+0x1e>)
 8002492:	2300      	movs	r3, #0
 8002494:	e001      	b.n	800249a <LoopFillZerobss>

08002496 <FillZerobss>:
 8002496:	6013      	str	r3, [r2, #0]
 8002498:	3204      	adds	r2, #4

0800249a <LoopFillZerobss>:
 800249a:	42a2      	cmp	r2, r4
 800249c:	d3fb      	bcc.n	8002496 <FillZerobss>
 800249e:	f003 f8fd 	bl	800569c <__libc_init_array>
 80024a2:	f7fe ffab 	bl	80013fc <main>
 80024a6:	4770      	bx	lr
 80024a8:	20000000 	.word	0x20000000
 80024ac:	2000001c 	.word	0x2000001c
 80024b0:	080057cc 	.word	0x080057cc
 80024b4:	20000020 	.word	0x20000020
 80024b8:	20003130 	.word	0x20003130

080024bc <ADC1_2_IRQHandler>:
 80024bc:	e7fe      	b.n	80024bc <ADC1_2_IRQHandler>
	...

080024c0 <HAL_InitTick>:
 80024c0:	b538      	push	{r3, r4, r5, lr}
 80024c2:	4b0e      	ldr	r3, [pc, #56]	@ (80024fc <HAL_InitTick+0x3c>)
 80024c4:	4605      	mov	r5, r0
 80024c6:	781a      	ldrb	r2, [r3, #0]
 80024c8:	f44f 737a 	mov.w	r3, #1000	@ 0x3e8
 80024cc:	fbb3 f3f2 	udiv	r3, r3, r2
 80024d0:	4a0b      	ldr	r2, [pc, #44]	@ (8002500 <HAL_InitTick+0x40>)
 80024d2:	6810      	ldr	r0, [r2, #0]
 80024d4:	fbb0 f0f3 	udiv	r0, r0, r3
 80024d8:	f000 f89c 	bl	8002614 <HAL_SYSTICK_Config>
 80024dc:	4604      	mov	r4, r0
 80024de:	b958      	cbnz	r0, 80024f8 <HAL_InitTick+0x38>
 80024e0:	2d0f      	cmp	r5, #15
 80024e2:	d809      	bhi.n	80024f8 <HAL_InitTick+0x38>
 80024e4:	4602      	mov	r2, r0
 80024e6:	4629      	mov	r1, r5
 80024e8:	f04f 30ff 	mov.w	r0, #4294967295
 80024ec:	f000 f854 	bl	8002598 <HAL_NVIC_SetPriority>
 80024f0:	4620      	mov	r0, r4
 80024f2:	4b04      	ldr	r3, [pc, #16]	@ (8002504 <HAL_InitTick+0x44>)
 80024f4:	601d      	str	r5, [r3, #0]
 80024f6:	bd38      	pop	{r3, r4, r5, pc}
 80024f8:	2001      	movs	r0, #1
 80024fa:	e7fc      	b.n	80024f6 <HAL_InitTick+0x36>
 80024fc:	20000010 	.word	0x20000010
 8002500:	2000000c 	.word	0x2000000c
 8002504:	20000014 	.word	0x20000014

08002508 <HAL_Init>:
 8002508:	4a07      	ldr	r2, [pc, #28]	@ (8002528 <HAL_Init+0x20>)
 800250a:	b508      	push	{r3, lr}
 800250c:	6813      	ldr	r3, [r2, #0]
 800250e:	2003      	movs	r0, #3
 8002510:	f043 0310 	orr.w	r3, r3, #16
 8002514:	6013      	str	r3, [r2, #0]
 8002516:	f000 f82d 	bl	8002574 <HAL_NVIC_SetPriorityGrouping>
 800251a:	200f      	movs	r0, #15
 800251c:	f7ff ffd0 	bl	80024c0 <HAL_InitTick>
 8002520:	f7ff fe6e 	bl	8002200 <HAL_MspInit>
 8002524:	2000      	movs	r0, #0
 8002526:	bd08      	pop	{r3, pc}
 8002528:	40022000 	.word	0x40022000

0800252c <HAL_IncTick>:
 800252c:	4a03      	ldr	r2, [pc, #12]	@ (800253c <HAL_IncTick+0x10>)
 800252e:	4b04      	ldr	r3, [pc, #16]	@ (8002540 <HAL_IncTick+0x14>)
 8002530:	6811      	ldr	r1, [r2, #0]
 8002532:	781b      	ldrb	r3, [r3, #0]
 8002534:	440b      	add	r3, r1
 8002536:	6013      	str	r3, [r2, #0]
 8002538:	4770      	bx	lr
 800253a:	bf00      	nop
 800253c:	200007dc 	.word	0x200007dc
 8002540:	20000010 	.word	0x20000010

08002544 <HAL_GetTick>:
 8002544:	4b01      	ldr	r3, [pc, #4]	@ (800254c <HAL_GetTick+0x8>)
 8002546:	6818      	ldr	r0, [r3, #0]
 8002548:	4770      	bx	lr
 800254a:	bf00      	nop
 800254c:	200007dc 	.word	0x200007dc

08002550 <HAL_Delay>:
 8002550:	b538      	push	{r3, r4, r5, lr}
 8002552:	4604      	mov	r4, r0
 8002554:	f7ff fff6 	bl	8002544 <HAL_GetTick>
 8002558:	4605      	mov	r5, r0
 800255a:	1c63      	adds	r3, r4, #1
 800255c:	bf1e      	ittt	ne
 800255e:	4b04      	ldrne	r3, [pc, #16]	@ (8002570 <HAL_Delay+0x20>)
 8002560:	781b      	ldrbne	r3, [r3, #0]
 8002562:	18e4      	addne	r4, r4, r3
 8002564:	f7ff ffee 	bl	8002544 <HAL_GetTick>
 8002568:	1b43      	subs	r3, r0, r5
 800256a:	42a3      	cmp	r3, r4
 800256c:	d3fa      	bcc.n	8002564 <HAL_Delay+0x14>
 800256e:	bd38      	pop	{r3, r4, r5, pc}
 8002570:	20000010 	.word	0x20000010

08002574 <HAL_NVIC_SetPriorityGrouping>:
 8002574:	4907      	ldr	r1, [pc, #28]	@ (8002594 <HAL_NVIC_SetPriorityGrouping+0x20>)
 8002576:	0203      	lsls	r3, r0, #8
 8002578:	68ca      	ldr	r2, [r1, #12]
 800257a:	f403 63e0 	and.w	r3, r3, #1792	@ 0x700
 800257e:	f422 62e0 	bic.w	r2, r2, #1792	@ 0x700
 8002582:	0412      	lsls	r2, r2, #16
 8002584:	0c12      	lsrs	r2, r2, #16
 8002586:	4313      	orrs	r3, r2
 8002588:	f043 63bf 	orr.w	r3, r3, #100139008	@ 0x5f80000
 800258c:	f443 3300 	orr.w	r3, r3, #131072	@ 0x20000
 8002590:	60cb      	str	r3, [r1, #12]
 8002592:	4770      	bx	lr
 8002594:	e000ed00 	.word	0xe000ed00

08002598 <HAL_NVIC_SetPriority>:
 8002598:	4b15      	ldr	r3, [pc, #84]	@ (80025f0 <HAL_NVIC_SetPriority+0x58>)
 800259a:	b530      	push	{r4, r5, lr}
 800259c:	68dc      	ldr	r4, [r3, #12]
 800259e:	f3c4 2402 	ubfx	r4, r4, #8, #3
 80025a2:	f1c4 0307 	rsb	r3, r4, #7
 80025a6:	1d25      	adds	r5, r4, #4
 80025a8:	2b04      	cmp	r3, #4
 80025aa:	bf28      	it	cs
 80025ac:	2304      	movcs	r3, #4
 80025ae:	2d06      	cmp	r5, #6
 80025b0:	f04f 35ff 	mov.w	r5, #4294967295
 80025b4:	bf94      	ite	ls
 80025b6:	2400      	movls	r4, #0
 80025b8:	3c03      	subhi	r4, #3
 80025ba:	fa05 f303 	lsl.w	r3, r5, r3
 80025be:	ea21 0303 	bic.w	r3, r1, r3
 80025c2:	40a5      	lsls	r5, r4
 80025c4:	ea22 0205 	bic.w	r2, r2, r5
 80025c8:	40a3      	lsls	r3, r4
 80025ca:	2800      	cmp	r0, #0
 80025cc:	ea43 0302 	orr.w	r3, r3, r2
 80025d0:	bfac      	ite	ge
 80025d2:	f100 4060 	addge.w	r0, r0, #3758096384	@ 0xe0000000
 80025d6:	4a07      	ldrlt	r2, [pc, #28]	@ (80025f4 <HAL_NVIC_SetPriority+0x5c>)
 80025d8:	ea4f 1303 	mov.w	r3, r3, lsl #4
 80025dc:	b2db      	uxtb	r3, r3
 80025de:	bfab      	itete	ge
 80025e0:	f500 4061 	addge.w	r0, r0, #57600	@ 0xe100
 80025e4:	f000 000f 	andlt.w	r0, r0, #15
 80025e8:	f880 3300 	strbge.w	r3, [r0, #768]	@ 0x300
 80025ec:	5413      	strblt	r3, [r2, r0]
 80025ee:	bd30      	pop	{r4, r5, pc}
 80025f0:	e000ed00 	.word	0xe000ed00
 80025f4:	e000ed14 	.word	0xe000ed14

080025f8 <HAL_NVIC_EnableIRQ>:
 80025f8:	2800      	cmp	r0, #0
 80025fa:	db07      	blt.n	800260c <HAL_NVIC_EnableIRQ+0x14>
 80025fc:	2301      	movs	r3, #1
 80025fe:	0941      	lsrs	r1, r0, #5
 8002600:	4a03      	ldr	r2, [pc, #12]	@ (8002610 <HAL_NVIC_EnableIRQ+0x18>)
 8002602:	f000 001f 	and.w	r0, r0, #31
 8002606:	4083      	lsls	r3, r0
 8002608:	f842 3021 	str.w	r3, [r2, r1, lsl #2]
 800260c:	4770      	bx	lr
 800260e:	bf00      	nop
 8002610:	e000e100 	.word	0xe000e100

08002614 <HAL_SYSTICK_Config>:
 8002614:	3801      	subs	r0, #1
 8002616:	f1b0 7f80 	cmp.w	r0, #16777216	@ 0x1000000
 800261a:	d20b      	bcs.n	8002634 <HAL_SYSTICK_Config+0x20>
 800261c:	f04f 23e0 	mov.w	r3, #3758153728	@ 0xe000e000
 8002620:	21f0      	movs	r1, #240	@ 0xf0
 8002622:	4a05      	ldr	r2, [pc, #20]	@ (8002638 <HAL_SYSTICK_Config+0x24>)
 8002624:	6158      	str	r0, [r3, #20]
 8002626:	f882 1023 	strb.w	r1, [r2, #35]	@ 0x23
 800262a:	2000      	movs	r0, #0
 800262c:	2207      	movs	r2, #7
 800262e:	6198      	str	r0, [r3, #24]
 8002630:	611a      	str	r2, [r3, #16]
 8002632:	4770      	bx	lr
 8002634:	2001      	movs	r0, #1
 8002636:	4770      	bx	lr
 8002638:	e000ed00 	.word	0xe000ed00

0800263c <HAL_DMA_Abort>:
 800263c:	f890 2021 	ldrb.w	r2, [r0, #33]	@ 0x21
 8002640:	4603      	mov	r3, r0
 8002642:	2a02      	cmp	r2, #2
 8002644:	d006      	beq.n	8002654 <HAL_DMA_Abort+0x18>
 8002646:	2204      	movs	r2, #4
 8002648:	6382      	str	r2, [r0, #56]	@ 0x38
 800264a:	2001      	movs	r0, #1
 800264c:	2200      	movs	r2, #0
 800264e:	f883 2020 	strb.w	r2, [r3, #32]
 8002652:	4770      	bx	lr
 8002654:	6802      	ldr	r2, [r0, #0]
 8002656:	6bc0      	ldr	r0, [r0, #60]	@ 0x3c
 8002658:	6811      	ldr	r1, [r2, #0]
 800265a:	f021 010e 	bic.w	r1, r1, #14
 800265e:	6011      	str	r1, [r2, #0]
 8002660:	6811      	ldr	r1, [r2, #0]
 8002662:	f021 0101 	bic.w	r1, r1, #1
 8002666:	6011      	str	r1, [r2, #0]
 8002668:	2101      	movs	r1, #1
 800266a:	6c1a      	ldr	r2, [r3, #64]	@ 0x40
 800266c:	fa01 f202 	lsl.w	r2, r1, r2
 8002670:	6042      	str	r2, [r0, #4]
 8002672:	2000      	movs	r0, #0
 8002674:	f883 1021 	strb.w	r1, [r3, #33]	@ 0x21
 8002678:	e7e8      	b.n	800264c <HAL_DMA_Abort+0x10>
	...

0800267c <HAL_DMA_Abort_IT>:
 800267c:	b508      	push	{r3, lr}
 800267e:	f890 3021 	ldrb.w	r3, [r0, #33]	@ 0x21
 8002682:	2b02      	cmp	r3, #2
 8002684:	d003      	beq.n	800268e <HAL_DMA_Abort_IT+0x12>
 8002686:	2304      	movs	r3, #4
 8002688:	6383      	str	r3, [r0, #56]	@ 0x38
 800268a:	2001      	movs	r0, #1
 800268c:	bd08      	pop	{r3, pc}
 800268e:	6803      	ldr	r3, [r0, #0]
 8002690:	681a      	ldr	r2, [r3, #0]
 8002692:	f022 020e 	bic.w	r2, r2, #14
 8002696:	601a      	str	r2, [r3, #0]
 8002698:	681a      	ldr	r2, [r3, #0]
 800269a:	f022 0201 	bic.w	r2, r2, #1
 800269e:	601a      	str	r2, [r3, #0]
 80026a0:	4a17      	ldr	r2, [pc, #92]	@ (8002700 <HAL_DMA_Abort_IT+0x84>)
 80026a2:	4293      	cmp	r3, r2
 80026a4:	d01f      	beq.n	80026e6 <HAL_DMA_Abort_IT+0x6a>
 80026a6:	3214      	adds	r2, #20
 80026a8:	4293      	cmp	r3, r2
 80026aa:	d01e      	beq.n	80026ea <HAL_DMA_Abort_IT+0x6e>
 80026ac:	3214      	adds	r2, #20
 80026ae:	4293      	cmp	r3, r2
 80026b0:	d01d      	beq.n	80026ee <HAL_DMA_Abort_IT+0x72>
 80026b2:	3214      	adds	r2, #20
 80026b4:	4293      	cmp	r3, r2
 80026b6:	d01d      	beq.n	80026f4 <HAL_DMA_Abort_IT+0x78>
 80026b8:	3214      	adds	r2, #20
 80026ba:	4293      	cmp	r3, r2
 80026bc:	d01d      	beq.n	80026fa <HAL_DMA_Abort_IT+0x7e>
 80026be:	3214      	adds	r2, #20
 80026c0:	4293      	cmp	r3, r2
 80026c2:	bf14      	ite	ne
 80026c4:	f04f 7380 	movne.w	r3, #16777216	@ 0x1000000
 80026c8:	f44f 1380 	moveq.w	r3, #1048576	@ 0x100000
 80026cc:	4a0d      	ldr	r2, [pc, #52]	@ (8002704 <HAL_DMA_Abort_IT+0x88>)
 80026ce:	6053      	str	r3, [r2, #4]
 80026d0:	2301      	movs	r3, #1
 80026d2:	f880 3021 	strb.w	r3, [r0, #33]	@ 0x21
 80026d6:	2300      	movs	r3, #0
 80026d8:	f880 3020 	strb.w	r3, [r0, #32]
 80026dc:	6b43      	ldr	r3, [r0, #52]	@ 0x34
 80026de:	b103      	cbz	r3, 80026e2 <HAL_DMA_Abort_IT+0x66>
 80026e0:	4798      	blx	r3
 80026e2:	2000      	movs	r0, #0
 80026e4:	e7d2      	b.n	800268c <HAL_DMA_Abort_IT+0x10>
 80026e6:	2301      	movs	r3, #1
 80026e8:	e7f0      	b.n	80026cc <HAL_DMA_Abort_IT+0x50>
 80026ea:	2310      	movs	r3, #16
 80026ec:	e7ee      	b.n	80026cc <HAL_DMA_Abort_IT+0x50>
 80026ee:	f44f 7380 	mov.w	r3, #256	@ 0x100
 80026f2:	e7eb      	b.n	80026cc <HAL_DMA_Abort_IT+0x50>
 80026f4:	f44f 5380 	mov.w	r3, #4096	@ 0x1000
 80026f8:	e7e8      	b.n	80026cc <HAL_DMA_Abort_IT+0x50>
 80026fa:	f44f 3380 	mov.w	r3, #65536	@ 0x10000
 80026fe:	e7e5      	b.n	80026cc <HAL_DMA_Abort_IT+0x50>
 8002700:	40020008 	.word	0x40020008
 8002704:	40020000 	.word	0x40020000

08002708 <HAL_DMA_GetState>:
 8002708:	f890 0021 	ldrb.w	r0, [r0, #33]	@ 0x21
 800270c:	4770      	bx	lr

0800270e <HAL_DMA_GetError>:
 800270e:	6b80      	ldr	r0, [r0, #56]	@ 0x38
 8002710:	4770      	bx	lr
	...

08002714 <HAL_GPIO_Init>:
 8002714:	e92d 4ff7 	stmdb	sp!, {r0, r1, r2, r4, r5, r6, r7, r8, r9, sl, fp, lr}
 8002718:	2400      	movs	r4, #0
 800271a:	f04f 0e0f 	mov.w	lr, #15
 800271e:	4626      	mov	r6, r4
 8002720:	f8df c184 	ldr.w	ip, [pc, #388]	@ 80028a8 <HAL_GPIO_Init+0x194>
 8002724:	4b61      	ldr	r3, [pc, #388]	@ (80028ac <HAL_GPIO_Init+0x198>)
 8002726:	f100 0804 	add.w	r8, r0, #4
 800272a:	680a      	ldr	r2, [r1, #0]
 800272c:	fa32 f506 	lsrs.w	r5, r2, r6
 8002730:	d102      	bne.n	8002738 <HAL_GPIO_Init+0x24>
 8002732:	b003      	add	sp, #12
 8002734:	e8bd 8ff0 	ldmia.w	sp!, {r4, r5, r6, r7, r8, r9, sl, fp, pc}
 8002738:	2501      	movs	r5, #1
 800273a:	fa05 f706 	lsl.w	r7, r5, r6
 800273e:	ea02 0507 	and.w	r5, r2, r7
 8002742:	ea37 0202 	bics.w	r2, r7, r2
 8002746:	d176      	bne.n	8002836 <HAL_GPIO_Init+0x122>
 8002748:	684a      	ldr	r2, [r1, #4]
 800274a:	2a03      	cmp	r2, #3
 800274c:	d807      	bhi.n	800275e <HAL_GPIO_Init+0x4a>
 800274e:	3a01      	subs	r2, #1
 8002750:	2a02      	cmp	r2, #2
 8002752:	f200 8083 	bhi.w	800285c <HAL_GPIO_Init+0x148>
 8002756:	e8df f002 	tbb	[pc, r2]
 800275a:	9691      	.short	0x9691
 800275c:	9c          	.byte	0x9c
 800275d:	00          	.byte	0x00
 800275e:	2a12      	cmp	r2, #18
 8002760:	f000 8094 	beq.w	800288c <HAL_GPIO_Init+0x178>
 8002764:	d869      	bhi.n	800283a <HAL_GPIO_Init+0x126>
 8002766:	2a11      	cmp	r2, #17
 8002768:	f000 808a 	beq.w	8002880 <HAL_GPIO_Init+0x16c>
 800276c:	2dff      	cmp	r5, #255	@ 0xff
 800276e:	bf94      	ite	ls
 8002770:	4681      	movls	r9, r0
 8002772:	46c1      	movhi	r9, r8
 8002774:	ea4f 0286 	mov.w	r2, r6, lsl #2
 8002778:	f8d9 7000 	ldr.w	r7, [r9]
 800277c:	bf88      	it	hi
 800277e:	3a20      	subhi	r2, #32
 8002780:	fa0e fa02 	lsl.w	sl, lr, r2
 8002784:	ea27 070a 	bic.w	r7, r7, sl
 8002788:	fa04 f202 	lsl.w	r2, r4, r2
 800278c:	4317      	orrs	r7, r2
 800278e:	f8c9 7000 	str.w	r7, [r9]
 8002792:	f8d1 9004 	ldr.w	r9, [r1, #4]
 8002796:	f019 5f80 	tst.w	r9, #268435456	@ 0x10000000
 800279a:	d04c      	beq.n	8002836 <HAL_GPIO_Init+0x122>
 800279c:	f8dc 2018 	ldr.w	r2, [ip, #24]
 80027a0:	f026 0703 	bic.w	r7, r6, #3
 80027a4:	f042 0201 	orr.w	r2, r2, #1
 80027a8:	f8cc 2018 	str.w	r2, [ip, #24]
 80027ac:	f8dc 2018 	ldr.w	r2, [ip, #24]
 80027b0:	f107 4780 	add.w	r7, r7, #1073741824	@ 0x40000000
 80027b4:	f002 0201 	and.w	r2, r2, #1
 80027b8:	9201      	str	r2, [sp, #4]
 80027ba:	f507 3780 	add.w	r7, r7, #65536	@ 0x10000
 80027be:	f006 0a03 	and.w	sl, r6, #3
 80027c2:	9a01      	ldr	r2, [sp, #4]
 80027c4:	ea4f 0a8a 	mov.w	sl, sl, lsl #2
 80027c8:	68ba      	ldr	r2, [r7, #8]
 80027ca:	fa0e fb0a 	lsl.w	fp, lr, sl
 80027ce:	ea22 0b0b 	bic.w	fp, r2, fp
 80027d2:	4a37      	ldr	r2, [pc, #220]	@ (80028b0 <HAL_GPIO_Init+0x19c>)
 80027d4:	4290      	cmp	r0, r2
 80027d6:	d060      	beq.n	800289a <HAL_GPIO_Init+0x186>
 80027d8:	f502 6280 	add.w	r2, r2, #1024	@ 0x400
 80027dc:	4290      	cmp	r0, r2
 80027de:	d05e      	beq.n	800289e <HAL_GPIO_Init+0x18a>
 80027e0:	f502 6280 	add.w	r2, r2, #1024	@ 0x400
 80027e4:	4290      	cmp	r0, r2
 80027e6:	d05c      	beq.n	80028a2 <HAL_GPIO_Init+0x18e>
 80027e8:	f502 6280 	add.w	r2, r2, #1024	@ 0x400
 80027ec:	4290      	cmp	r0, r2
 80027ee:	bf14      	ite	ne
 80027f0:	2204      	movne	r2, #4
 80027f2:	2203      	moveq	r2, #3
 80027f4:	fa02 f20a 	lsl.w	r2, r2, sl
 80027f8:	ea42 020b 	orr.w	r2, r2, fp
 80027fc:	60ba      	str	r2, [r7, #8]
 80027fe:	689a      	ldr	r2, [r3, #8]
 8002800:	f419 1f80 	tst.w	r9, #1048576	@ 0x100000
 8002804:	bf14      	ite	ne
 8002806:	432a      	orrne	r2, r5
 8002808:	43aa      	biceq	r2, r5
 800280a:	609a      	str	r2, [r3, #8]
 800280c:	68da      	ldr	r2, [r3, #12]
 800280e:	f419 1f00 	tst.w	r9, #2097152	@ 0x200000
 8002812:	bf14      	ite	ne
 8002814:	432a      	orrne	r2, r5
 8002816:	43aa      	biceq	r2, r5
 8002818:	60da      	str	r2, [r3, #12]
 800281a:	685a      	ldr	r2, [r3, #4]
 800281c:	f419 3f00 	tst.w	r9, #131072	@ 0x20000
 8002820:	bf14      	ite	ne
 8002822:	432a      	orrne	r2, r5
 8002824:	43aa      	biceq	r2, r5
 8002826:	605a      	str	r2, [r3, #4]
 8002828:	681a      	ldr	r2, [r3, #0]
 800282a:	f419 3f80 	tst.w	r9, #65536	@ 0x10000
 800282e:	bf14      	ite	ne
 8002830:	432a      	orrne	r2, r5
 8002832:	43aa      	biceq	r2, r5
 8002834:	601a      	str	r2, [r3, #0]
 8002836:	3601      	adds	r6, #1
 8002838:	e777      	b.n	800272a <HAL_GPIO_Init+0x16>
 800283a:	f8df 9078 	ldr.w	r9, [pc, #120]	@ 80028b4 <HAL_GPIO_Init+0x1a0>
 800283e:	454a      	cmp	r2, r9
 8002840:	d00c      	beq.n	800285c <HAL_GPIO_Init+0x148>
 8002842:	d814      	bhi.n	800286e <HAL_GPIO_Init+0x15a>
 8002844:	f5a9 1980 	sub.w	r9, r9, #1048576	@ 0x100000
 8002848:	454a      	cmp	r2, r9
 800284a:	d007      	beq.n	800285c <HAL_GPIO_Init+0x148>
 800284c:	f509 2970 	add.w	r9, r9, #983040	@ 0xf0000
 8002850:	454a      	cmp	r2, r9
 8002852:	d003      	beq.n	800285c <HAL_GPIO_Init+0x148>
 8002854:	f5a9 1980 	sub.w	r9, r9, #1048576	@ 0x100000
 8002858:	454a      	cmp	r2, r9
 800285a:	d187      	bne.n	800276c <HAL_GPIO_Init+0x58>
 800285c:	688a      	ldr	r2, [r1, #8]
 800285e:	b1d2      	cbz	r2, 8002896 <HAL_GPIO_Init+0x182>
 8002860:	2a01      	cmp	r2, #1
 8002862:	f04f 0408 	mov.w	r4, #8
 8002866:	bf0c      	ite	eq
 8002868:	6107      	streq	r7, [r0, #16]
 800286a:	6147      	strne	r7, [r0, #20]
 800286c:	e77e      	b.n	800276c <HAL_GPIO_Init+0x58>
 800286e:	f8df 9048 	ldr.w	r9, [pc, #72]	@ 80028b8 <HAL_GPIO_Init+0x1a4>
 8002872:	454a      	cmp	r2, r9
 8002874:	d0f2      	beq.n	800285c <HAL_GPIO_Init+0x148>
 8002876:	f509 3980 	add.w	r9, r9, #65536	@ 0x10000
 800287a:	e7ed      	b.n	8002858 <HAL_GPIO_Init+0x144>
 800287c:	68cc      	ldr	r4, [r1, #12]
 800287e:	e775      	b.n	800276c <HAL_GPIO_Init+0x58>
 8002880:	68cc      	ldr	r4, [r1, #12]
 8002882:	3404      	adds	r4, #4
 8002884:	e772      	b.n	800276c <HAL_GPIO_Init+0x58>
 8002886:	68cc      	ldr	r4, [r1, #12]
 8002888:	3408      	adds	r4, #8
 800288a:	e76f      	b.n	800276c <HAL_GPIO_Init+0x58>
 800288c:	68cc      	ldr	r4, [r1, #12]
 800288e:	340c      	adds	r4, #12
 8002890:	e76c      	b.n	800276c <HAL_GPIO_Init+0x58>
 8002892:	2400      	movs	r4, #0
 8002894:	e76a      	b.n	800276c <HAL_GPIO_Init+0x58>
 8002896:	2404      	movs	r4, #4
 8002898:	e768      	b.n	800276c <HAL_GPIO_Init+0x58>
 800289a:	2200      	movs	r2, #0
 800289c:	e7aa      	b.n	80027f4 <HAL_GPIO_Init+0xe0>
 800289e:	2201      	movs	r2, #1
 80028a0:	e7a8      	b.n	80027f4 <HAL_GPIO_Init+0xe0>
 80028a2:	2202      	movs	r2, #2
 80028a4:	e7a6      	b.n	80027f4 <HAL_GPIO_Init+0xe0>
 80028a6:	bf00      	nop
 80028a8:	40021000 	.word	0x40021000
 80028ac:	40010400 	.word	0x40010400
 80028b0:	40010800 	.word	0x40010800
 80028b4:	10220000 	.word	0x10220000
 80028b8:	10310000 	.word	0x10310000

080028bc <HAL_GPIO_ReadPin>:
 80028bc:	6883      	ldr	r3, [r0, #8]
 80028be:	4219      	tst	r1, r3
 80028c0:	bf14      	ite	ne
 80028c2:	2001      	movne	r0, #1
 80028c4:	2000      	moveq	r0, #0
 80028c6:	4770      	bx	lr

080028c8 <HAL_GPIO_WritePin>:
 80028c8:	b10a      	cbz	r2, 80028ce <HAL_GPIO_WritePin+0x6>
 80028ca:	6101      	str	r1, [r0, #16]
 80028cc:	4770      	bx	lr
 80028ce:	0409      	lsls	r1, r1, #16
 80028d0:	e7fb      	b.n	80028ca <HAL_GPIO_WritePin+0x2>

080028d2 <HAL_GPIO_TogglePin>:
 80028d2:	68c3      	ldr	r3, [r0, #12]
 80028d4:	ea01 0203 	and.w	r2, r1, r3
 80028d8:	ea21 0103 	bic.w	r1, r1, r3
 80028dc:	ea41 4102 	orr.w	r1, r1, r2, lsl #16
 80028e0:	6101      	str	r1, [r0, #16]
 80028e2:	4770      	bx	lr

080028e4 <I2C_IsAcknowledgeFailed>:
 80028e4:	6801      	ldr	r1, [r0, #0]
 80028e6:	2200      	movs	r2, #0
 80028e8:	694b      	ldr	r3, [r1, #20]
 80028ea:	f413 6380 	ands.w	r3, r3, #1024	@ 0x400
 80028ee:	d010      	beq.n	8002912 <I2C_IsAcknowledgeFailed+0x2e>
 80028f0:	f46f 6380 	mvn.w	r3, #1024	@ 0x400
 80028f4:	614b      	str	r3, [r1, #20]
 80028f6:	2320      	movs	r3, #32
 80028f8:	6302      	str	r2, [r0, #48]	@ 0x30
 80028fa:	f880 303d 	strb.w	r3, [r0, #61]	@ 0x3d
 80028fe:	f880 203e 	strb.w	r2, [r0, #62]	@ 0x3e
 8002902:	6c03      	ldr	r3, [r0, #64]	@ 0x40
 8002904:	f880 203c 	strb.w	r2, [r0, #60]	@ 0x3c
 8002908:	f043 0304 	orr.w	r3, r3, #4
 800290c:	6403      	str	r3, [r0, #64]	@ 0x40
 800290e:	2001      	movs	r0, #1
 8002910:	4770      	bx	lr
 8002912:	4618      	mov	r0, r3
 8002914:	4770      	bx	lr

08002916 <I2C_WaitOnFlagUntilTimeout>:
 8002916:	e92d 46f8 	stmdb	sp!, {r3, r4, r5, r6, r7, r9, sl, lr}
 800291a:	4606      	mov	r6, r0
 800291c:	460f      	mov	r7, r1
 800291e:	4691      	mov	r9, r2
 8002920:	461d      	mov	r5, r3
 8002922:	ea4f 4a11 	mov.w	sl, r1, lsr #16
 8002926:	6833      	ldr	r3, [r6, #0]
 8002928:	f1ba 0f01 	cmp.w	sl, #1
 800292c:	bf0c      	ite	eq
 800292e:	695c      	ldreq	r4, [r3, #20]
 8002930:	699c      	ldrne	r4, [r3, #24]
 8002932:	ea27 0404 	bic.w	r4, r7, r4
 8002936:	b2a4      	uxth	r4, r4
 8002938:	fab4 f484 	clz	r4, r4
 800293c:	0964      	lsrs	r4, r4, #5
 800293e:	45a1      	cmp	r9, r4
 8002940:	d001      	beq.n	8002946 <I2C_WaitOnFlagUntilTimeout+0x30>
 8002942:	2000      	movs	r0, #0
 8002944:	e025      	b.n	8002992 <I2C_WaitOnFlagUntilTimeout+0x7c>
 8002946:	1c6a      	adds	r2, r5, #1
 8002948:	d0ee      	beq.n	8002928 <I2C_WaitOnFlagUntilTimeout+0x12>
 800294a:	f7ff fdfb 	bl	8002544 <HAL_GetTick>
 800294e:	9b08      	ldr	r3, [sp, #32]
 8002950:	1ac0      	subs	r0, r0, r3
 8002952:	42a8      	cmp	r0, r5
 8002954:	d801      	bhi.n	800295a <I2C_WaitOnFlagUntilTimeout+0x44>
 8002956:	2d00      	cmp	r5, #0
 8002958:	d1e5      	bne.n	8002926 <I2C_WaitOnFlagUntilTimeout+0x10>
 800295a:	6833      	ldr	r3, [r6, #0]
 800295c:	f1ba 0f01 	cmp.w	sl, #1
 8002960:	bf0c      	ite	eq
 8002962:	695b      	ldreq	r3, [r3, #20]
 8002964:	699b      	ldrne	r3, [r3, #24]
 8002966:	ea27 0303 	bic.w	r3, r7, r3
 800296a:	b29b      	uxth	r3, r3
 800296c:	fab3 f383 	clz	r3, r3
 8002970:	095b      	lsrs	r3, r3, #5
 8002972:	4599      	cmp	r9, r3
 8002974:	d1d7      	bne.n	8002926 <I2C_WaitOnFlagUntilTimeout+0x10>
 8002976:	2300      	movs	r3, #0
 8002978:	2220      	movs	r2, #32
 800297a:	2001      	movs	r0, #1
 800297c:	6333      	str	r3, [r6, #48]	@ 0x30
 800297e:	f886 203d 	strb.w	r2, [r6, #61]	@ 0x3d
 8002982:	f886 303e 	strb.w	r3, [r6, #62]	@ 0x3e
 8002986:	6c32      	ldr	r2, [r6, #64]	@ 0x40
 8002988:	f886 303c 	strb.w	r3, [r6, #60]	@ 0x3c
 800298c:	f042 0220 	orr.w	r2, r2, #32
 8002990:	6432      	str	r2, [r6, #64]	@ 0x40
 8002992:	e8bd 86f8 	ldmia.w	sp!, {r3, r4, r5, r6, r7, r9, sl, pc}

08002996 <I2C_WaitOnMasterAddressFlagUntilTimeout>:
 8002996:	e92d 41f0 	stmdb	sp!, {r4, r5, r6, r7, r8, lr}
 800299a:	4604      	mov	r4, r0
 800299c:	460f      	mov	r7, r1
 800299e:	4616      	mov	r6, r2
 80029a0:	4698      	mov	r8, r3
 80029a2:	6825      	ldr	r5, [r4, #0]
 80029a4:	6968      	ldr	r0, [r5, #20]
 80029a6:	ea27 0000 	bic.w	r0, r7, r0
 80029aa:	b280      	uxth	r0, r0
 80029ac:	b1c0      	cbz	r0, 80029e0 <I2C_WaitOnMasterAddressFlagUntilTimeout+0x4a>
 80029ae:	696b      	ldr	r3, [r5, #20]
 80029b0:	055a      	lsls	r2, r3, #21
 80029b2:	d517      	bpl.n	80029e4 <I2C_WaitOnMasterAddressFlagUntilTimeout+0x4e>
 80029b4:	682b      	ldr	r3, [r5, #0]
 80029b6:	2220      	movs	r2, #32
 80029b8:	f443 7300 	orr.w	r3, r3, #512	@ 0x200
 80029bc:	602b      	str	r3, [r5, #0]
 80029be:	f46f 6380 	mvn.w	r3, #1024	@ 0x400
 80029c2:	616b      	str	r3, [r5, #20]
 80029c4:	2300      	movs	r3, #0
 80029c6:	6323      	str	r3, [r4, #48]	@ 0x30
 80029c8:	f884 203d 	strb.w	r2, [r4, #61]	@ 0x3d
 80029cc:	f884 303e 	strb.w	r3, [r4, #62]	@ 0x3e
 80029d0:	6c23      	ldr	r3, [r4, #64]	@ 0x40
 80029d2:	f043 0304 	orr.w	r3, r3, #4
 80029d6:	6423      	str	r3, [r4, #64]	@ 0x40
 80029d8:	2300      	movs	r3, #0
 80029da:	2001      	movs	r0, #1
 80029dc:	f884 303c 	strb.w	r3, [r4, #60]	@ 0x3c
 80029e0:	e8bd 81f0 	ldmia.w	sp!, {r4, r5, r6, r7, r8, pc}
 80029e4:	1c73      	adds	r3, r6, #1
 80029e6:	d0dd      	beq.n	80029a4 <I2C_WaitOnMasterAddressFlagUntilTimeout+0xe>
 80029e8:	f7ff fdac 	bl	8002544 <HAL_GetTick>
 80029ec:	eba0 0008 	sub.w	r0, r0, r8
 80029f0:	42b0      	cmp	r0, r6
 80029f2:	d801      	bhi.n	80029f8 <I2C_WaitOnMasterAddressFlagUntilTimeout+0x62>
 80029f4:	2e00      	cmp	r6, #0
 80029f6:	d1d4      	bne.n	80029a2 <I2C_WaitOnMasterAddressFlagUntilTimeout+0xc>
 80029f8:	6823      	ldr	r3, [r4, #0]
 80029fa:	695a      	ldr	r2, [r3, #20]
 80029fc:	ea27 0202 	bic.w	r2, r7, r2
 8002a00:	b292      	uxth	r2, r2
 8002a02:	2a00      	cmp	r2, #0
 8002a04:	d0cd      	beq.n	80029a2 <I2C_WaitOnMasterAddressFlagUntilTimeout+0xc>
 8002a06:	2300      	movs	r3, #0
 8002a08:	2220      	movs	r2, #32
 8002a0a:	6323      	str	r3, [r4, #48]	@ 0x30
 8002a0c:	f884 203d 	strb.w	r2, [r4, #61]	@ 0x3d
 8002a10:	f884 303e 	strb.w	r3, [r4, #62]	@ 0x3e
 8002a14:	6c23      	ldr	r3, [r4, #64]	@ 0x40
 8002a16:	4313      	orrs	r3, r2
 8002a18:	e7dd      	b.n	80029d6 <I2C_WaitOnMasterAddressFlagUntilTimeout+0x40>

08002a1a <I2C_WaitOnTXEFlagUntilTimeout>:
 8002a1a:	b570      	push	{r4, r5, r6, lr}
 8002a1c:	4604      	mov	r4, r0
 8002a1e:	460d      	mov	r5, r1
 8002a20:	4616      	mov	r6, r2
 8002a22:	6823      	ldr	r3, [r4, #0]
 8002a24:	695b      	ldr	r3, [r3, #20]
 8002a26:	061b      	lsls	r3, r3, #24
 8002a28:	d501      	bpl.n	8002a2e <I2C_WaitOnTXEFlagUntilTimeout+0x14>
 8002a2a:	2000      	movs	r0, #0
 8002a2c:	e01e      	b.n	8002a6c <I2C_WaitOnTXEFlagUntilTimeout+0x52>
 8002a2e:	4620      	mov	r0, r4
 8002a30:	f7ff ff58 	bl	80028e4 <I2C_IsAcknowledgeFailed>
 8002a34:	b9c8      	cbnz	r0, 8002a6a <I2C_WaitOnTXEFlagUntilTimeout+0x50>
 8002a36:	1c6a      	adds	r2, r5, #1
 8002a38:	d0f3      	beq.n	8002a22 <I2C_WaitOnTXEFlagUntilTimeout+0x8>
 8002a3a:	f7ff fd83 	bl	8002544 <HAL_GetTick>
 8002a3e:	1b80      	subs	r0, r0, r6
 8002a40:	42a8      	cmp	r0, r5
 8002a42:	d801      	bhi.n	8002a48 <I2C_WaitOnTXEFlagUntilTimeout+0x2e>
 8002a44:	2d00      	cmp	r5, #0
 8002a46:	d1ec      	bne.n	8002a22 <I2C_WaitOnTXEFlagUntilTimeout+0x8>
 8002a48:	6823      	ldr	r3, [r4, #0]
 8002a4a:	695b      	ldr	r3, [r3, #20]
 8002a4c:	f013 0380 	ands.w	r3, r3, #128	@ 0x80
 8002a50:	d1e7      	bne.n	8002a22 <I2C_WaitOnTXEFlagUntilTimeout+0x8>
 8002a52:	2220      	movs	r2, #32
 8002a54:	6323      	str	r3, [r4, #48]	@ 0x30
 8002a56:	f884 203d 	strb.w	r2, [r4, #61]	@ 0x3d
 8002a5a:	f884 303e 	strb.w	r3, [r4, #62]	@ 0x3e
 8002a5e:	6c22      	ldr	r2, [r4, #64]	@ 0x40
 8002a60:	f884 303c 	strb.w	r3, [r4, #60]	@ 0x3c
 8002a64:	f042 0220 	orr.w	r2, r2, #32
 8002a68:	6422      	str	r2, [r4, #64]	@ 0x40
 8002a6a:	2001      	movs	r0, #1
 8002a6c:	bd70      	pop	{r4, r5, r6, pc}

08002a6e <I2C_WaitOnBTFFlagUntilTimeout>:
 8002a6e:	b570      	push	{r4, r5, r6, lr}
 8002a70:	4604      	mov	r4, r0
 8002a72:	460d      	mov	r5, r1
 8002a74:	4616      	mov	r6, r2
 8002a76:	6823      	ldr	r3, [r4, #0]
 8002a78:	695b      	ldr	r3, [r3, #20]
 8002a7a:	075b      	lsls	r3, r3, #29
 8002a7c:	d501      	bpl.n	8002a82 <I2C_WaitOnBTFFlagUntilTimeout+0x14>
 8002a7e:	2000      	movs	r0, #0
 8002a80:	e01e      	b.n	8002ac0 <I2C_WaitOnBTFFlagUntilTimeout+0x52>
 8002a82:	4620      	mov	r0, r4
 8002a84:	f7ff ff2e 	bl	80028e4 <I2C_IsAcknowledgeFailed>
 8002a88:	b9c8      	cbnz	r0, 8002abe <I2C_WaitOnBTFFlagUntilTimeout+0x50>
 8002a8a:	1c6a      	adds	r2, r5, #1
 8002a8c:	d0f3      	beq.n	8002a76 <I2C_WaitOnBTFFlagUntilTimeout+0x8>
 8002a8e:	f7ff fd59 	bl	8002544 <HAL_GetTick>
 8002a92:	1b80      	subs	r0, r0, r6
 8002a94:	42a8      	cmp	r0, r5
 8002a96:	d801      	bhi.n	8002a9c <I2C_WaitOnBTFFlagUntilTimeout+0x2e>
 8002a98:	2d00      	cmp	r5, #0
 8002a9a:	d1ec      	bne.n	8002a76 <I2C_WaitOnBTFFlagUntilTimeout+0x8>
 8002a9c:	6823      	ldr	r3, [r4, #0]
 8002a9e:	695b      	ldr	r3, [r3, #20]
 8002aa0:	f013 0304 	ands.w	r3, r3, #4
 8002aa4:	d1e7      	bne.n	8002a76 <I2C_WaitOnBTFFlagUntilTimeout+0x8>
 8002aa6:	2220      	movs	r2, #32
 8002aa8:	6323      	str	r3, [r4, #48]	@ 0x30
 8002aaa:	f884 203d 	strb.w	r2, [r4, #61]	@ 0x3d
 8002aae:	f884 303e 	strb.w	r3, [r4, #62]	@ 0x3e
 8002ab2:	6c22      	ldr	r2, [r4, #64]	@ 0x40
 8002ab4:	f884 303c 	strb.w	r3, [r4, #60]	@ 0x3c
 8002ab8:	f042 0220 	orr.w	r2, r2, #32
 8002abc:	6422      	str	r2, [r4, #64]	@ 0x40
 8002abe:	2001      	movs	r0, #1
 8002ac0:	bd70      	pop	{r4, r5, r6, pc}

08002ac2 <I2C_WaitOnRXNEFlagUntilTimeout>:
 8002ac2:	b570      	push	{r4, r5, r6, lr}
 8002ac4:	4604      	mov	r4, r0
 8002ac6:	460d      	mov	r5, r1
 8002ac8:	4616      	mov	r6, r2
 8002aca:	6821      	ldr	r1, [r4, #0]
 8002acc:	694b      	ldr	r3, [r1, #20]
 8002ace:	f013 0340 	ands.w	r3, r3, #64	@ 0x40
 8002ad2:	d001      	beq.n	8002ad8 <I2C_WaitOnRXNEFlagUntilTimeout+0x16>
 8002ad4:	2000      	movs	r0, #0
 8002ad6:	e011      	b.n	8002afc <I2C_WaitOnRXNEFlagUntilTimeout+0x3a>
 8002ad8:	694a      	ldr	r2, [r1, #20]
 8002ada:	06d2      	lsls	r2, r2, #27
 8002adc:	d50f      	bpl.n	8002afe <I2C_WaitOnRXNEFlagUntilTimeout+0x3c>
 8002ade:	f06f 0210 	mvn.w	r2, #16
 8002ae2:	614a      	str	r2, [r1, #20]
 8002ae4:	2220      	movs	r2, #32
 8002ae6:	6323      	str	r3, [r4, #48]	@ 0x30
 8002ae8:	f884 203d 	strb.w	r2, [r4, #61]	@ 0x3d
 8002aec:	f884 303e 	strb.w	r3, [r4, #62]	@ 0x3e
 8002af0:	6c23      	ldr	r3, [r4, #64]	@ 0x40
 8002af2:	6423      	str	r3, [r4, #64]	@ 0x40
 8002af4:	2300      	movs	r3, #0
 8002af6:	2001      	movs	r0, #1
 8002af8:	f884 303c 	strb.w	r3, [r4, #60]	@ 0x3c
 8002afc:	bd70      	pop	{r4, r5, r6, pc}
 8002afe:	f7ff fd21 	bl	8002544 <HAL_GetTick>
 8002b02:	1b80      	subs	r0, r0, r6
 8002b04:	42a8      	cmp	r0, r5
 8002b06:	d801      	bhi.n	8002b0c <I2C_WaitOnRXNEFlagUntilTimeout+0x4a>
 8002b08:	2d00      	cmp	r5, #0
 8002b0a:	d1de      	bne.n	8002aca <I2C_WaitOnRXNEFlagUntilTimeout+0x8>
 8002b0c:	6823      	ldr	r3, [r4, #0]
 8002b0e:	695b      	ldr	r3, [r3, #20]
 8002b10:	f013 0340 	ands.w	r3, r3, #64	@ 0x40
 8002b14:	d1d9      	bne.n	8002aca <I2C_WaitOnRXNEFlagUntilTimeout+0x8>
 8002b16:	2220      	movs	r2, #32
 8002b18:	6323      	str	r3, [r4, #48]	@ 0x30
 8002b1a:	f884 203d 	strb.w	r2, [r4, #61]	@ 0x3d
 8002b1e:	f884 303e 	strb.w	r3, [r4, #62]	@ 0x3e
 8002b22:	6c23      	ldr	r3, [r4, #64]	@ 0x40
 8002b24:	4313      	orrs	r3, r2
 8002b26:	e7e4      	b.n	8002af2 <I2C_WaitOnRXNEFlagUntilTimeout+0x30>

08002b28 <HAL_I2C_Init>:
 8002b28:	b570      	push	{r4, r5, r6, lr}
 8002b2a:	4604      	mov	r4, r0
 8002b2c:	b908      	cbnz	r0, 8002b32 <HAL_I2C_Init+0xa>
 8002b2e:	2001      	movs	r0, #1
 8002b30:	bd70      	pop	{r4, r5, r6, pc}
 8002b32:	f890 303d 	ldrb.w	r3, [r0, #61]	@ 0x3d
 8002b36:	f003 02ff 	and.w	r2, r3, #255	@ 0xff
 8002b3a:	b91b      	cbnz	r3, 8002b44 <HAL_I2C_Init+0x1c>
 8002b3c:	f880 203c 	strb.w	r2, [r0, #60]	@ 0x3c
 8002b40:	f7ff fb86 	bl	8002250 <HAL_I2C_MspInit>
 8002b44:	2324      	movs	r3, #36	@ 0x24
 8002b46:	f884 303d 	strb.w	r3, [r4, #61]	@ 0x3d
 8002b4a:	6823      	ldr	r3, [r4, #0]
 8002b4c:	681a      	ldr	r2, [r3, #0]
 8002b4e:	f022 0201 	bic.w	r2, r2, #1
 8002b52:	601a      	str	r2, [r3, #0]
 8002b54:	681a      	ldr	r2, [r3, #0]
 8002b56:	f442 4200 	orr.w	r2, r2, #32768	@ 0x8000
 8002b5a:	601a      	str	r2, [r3, #0]
 8002b5c:	681a      	ldr	r2, [r3, #0]
 8002b5e:	f422 4200 	bic.w	r2, r2, #32768	@ 0x8000
 8002b62:	601a      	str	r2, [r3, #0]
 8002b64:	f001 fb2e 	bl	80041c4 <HAL_RCC_GetPCLK1Freq>
 8002b68:	4b3f      	ldr	r3, [pc, #252]	@ (8002c68 <HAL_I2C_Init+0x140>)
 8002b6a:	6865      	ldr	r5, [r4, #4]
 8002b6c:	429d      	cmp	r5, r3
 8002b6e:	bf94      	ite	ls
 8002b70:	4b3e      	ldrls	r3, [pc, #248]	@ (8002c6c <HAL_I2C_Init+0x144>)
 8002b72:	4b3f      	ldrhi	r3, [pc, #252]	@ (8002c70 <HAL_I2C_Init+0x148>)
 8002b74:	4298      	cmp	r0, r3
 8002b76:	bf8c      	ite	hi
 8002b78:	2300      	movhi	r3, #0
 8002b7a:	2301      	movls	r3, #1
 8002b7c:	2b00      	cmp	r3, #0
 8002b7e:	d1d6      	bne.n	8002b2e <HAL_I2C_Init+0x6>
 8002b80:	4e39      	ldr	r6, [pc, #228]	@ (8002c68 <HAL_I2C_Init+0x140>)
 8002b82:	4b3c      	ldr	r3, [pc, #240]	@ (8002c74 <HAL_I2C_Init+0x14c>)
 8002b84:	42b5      	cmp	r5, r6
 8002b86:	fbb0 f3f3 	udiv	r3, r0, r3
 8002b8a:	bf88      	it	hi
 8002b8c:	f44f 7696 	movhi.w	r6, #300	@ 0x12c
 8002b90:	6822      	ldr	r2, [r4, #0]
 8002b92:	6851      	ldr	r1, [r2, #4]
 8002b94:	f021 013f 	bic.w	r1, r1, #63	@ 0x3f
 8002b98:	ea41 0103 	orr.w	r1, r1, r3
 8002b9c:	bf82      	ittt	hi
 8002b9e:	4373      	mulhi	r3, r6
 8002ba0:	f44f 767a 	movhi.w	r6, #1000	@ 0x3e8
 8002ba4:	fbb3 f3f6 	udivhi	r3, r3, r6
 8002ba8:	6051      	str	r1, [r2, #4]
 8002baa:	6a11      	ldr	r1, [r2, #32]
 8002bac:	3301      	adds	r3, #1
 8002bae:	f021 013f 	bic.w	r1, r1, #63	@ 0x3f
 8002bb2:	430b      	orrs	r3, r1
 8002bb4:	6213      	str	r3, [r2, #32]
 8002bb6:	69d1      	ldr	r1, [r2, #28]
 8002bb8:	1e43      	subs	r3, r0, #1
 8002bba:	482b      	ldr	r0, [pc, #172]	@ (8002c68 <HAL_I2C_Init+0x140>)
 8002bbc:	f421 414f 	bic.w	r1, r1, #52992	@ 0xcf00
 8002bc0:	4285      	cmp	r5, r0
 8002bc2:	f021 01ff 	bic.w	r1, r1, #255	@ 0xff
 8002bc6:	d832      	bhi.n	8002c2e <HAL_I2C_Init+0x106>
 8002bc8:	006d      	lsls	r5, r5, #1
 8002bca:	fbb3 f3f5 	udiv	r3, r3, r5
 8002bce:	f640 70fc 	movw	r0, #4092	@ 0xffc
 8002bd2:	3301      	adds	r3, #1
 8002bd4:	4203      	tst	r3, r0
 8002bd6:	d042      	beq.n	8002c5e <HAL_I2C_Init+0x136>
 8002bd8:	f3c3 030b 	ubfx	r3, r3, #0, #12
 8002bdc:	4319      	orrs	r1, r3
 8002bde:	61d1      	str	r1, [r2, #28]
 8002be0:	6811      	ldr	r1, [r2, #0]
 8002be2:	e9d4 3007 	ldrd	r3, r0, [r4, #28]
 8002be6:	f021 01c0 	bic.w	r1, r1, #192	@ 0xc0
 8002bea:	4303      	orrs	r3, r0
 8002bec:	430b      	orrs	r3, r1
 8002bee:	6013      	str	r3, [r2, #0]
 8002bf0:	6891      	ldr	r1, [r2, #8]
 8002bf2:	e9d4 0303 	ldrd	r0, r3, [r4, #12]
 8002bf6:	f421 4103 	bic.w	r1, r1, #33536	@ 0x8300
 8002bfa:	4303      	orrs	r3, r0
 8002bfc:	f021 01ff 	bic.w	r1, r1, #255	@ 0xff
 8002c00:	430b      	orrs	r3, r1
 8002c02:	6093      	str	r3, [r2, #8]
 8002c04:	68d1      	ldr	r1, [r2, #12]
 8002c06:	e9d4 3005 	ldrd	r3, r0, [r4, #20]
 8002c0a:	f021 01ff 	bic.w	r1, r1, #255	@ 0xff
 8002c0e:	4303      	orrs	r3, r0
 8002c10:	430b      	orrs	r3, r1
 8002c12:	60d3      	str	r3, [r2, #12]
 8002c14:	6813      	ldr	r3, [r2, #0]
 8002c16:	2000      	movs	r0, #0
 8002c18:	f043 0301 	orr.w	r3, r3, #1
 8002c1c:	6013      	str	r3, [r2, #0]
 8002c1e:	2320      	movs	r3, #32
 8002c20:	6420      	str	r0, [r4, #64]	@ 0x40
 8002c22:	f884 303d 	strb.w	r3, [r4, #61]	@ 0x3d
 8002c26:	6320      	str	r0, [r4, #48]	@ 0x30
 8002c28:	f884 003e 	strb.w	r0, [r4, #62]	@ 0x3e
 8002c2c:	e780      	b.n	8002b30 <HAL_I2C_Init+0x8>
 8002c2e:	68a0      	ldr	r0, [r4, #8]
 8002c30:	b950      	cbnz	r0, 8002c48 <HAL_I2C_Init+0x120>
 8002c32:	eb05 0545 	add.w	r5, r5, r5, lsl #1
 8002c36:	fbb3 f3f5 	udiv	r3, r3, r5
 8002c3a:	3301      	adds	r3, #1
 8002c3c:	f3c3 030b 	ubfx	r3, r3, #0, #12
 8002c40:	b17b      	cbz	r3, 8002c62 <HAL_I2C_Init+0x13a>
 8002c42:	f443 4300 	orr.w	r3, r3, #32768	@ 0x8000
 8002c46:	e7c9      	b.n	8002bdc <HAL_I2C_Init+0xb4>
 8002c48:	2019      	movs	r0, #25
 8002c4a:	4368      	muls	r0, r5
 8002c4c:	fbb3 f3f0 	udiv	r3, r3, r0
 8002c50:	3301      	adds	r3, #1
 8002c52:	f3c3 030b 	ubfx	r3, r3, #0, #12
 8002c56:	b123      	cbz	r3, 8002c62 <HAL_I2C_Init+0x13a>
 8002c58:	f443 4340 	orr.w	r3, r3, #49152	@ 0xc000
 8002c5c:	e7be      	b.n	8002bdc <HAL_I2C_Init+0xb4>
 8002c5e:	2304      	movs	r3, #4
 8002c60:	e7bc      	b.n	8002bdc <HAL_I2C_Init+0xb4>
 8002c62:	2301      	movs	r3, #1
 8002c64:	e7ba      	b.n	8002bdc <HAL_I2C_Init+0xb4>
 8002c66:	bf00      	nop
 8002c68:	000186a0 	.word	0x000186a0
 8002c6c:	001e847f 	.word	0x001e847f
 8002c70:	003d08ff 	.word	0x003d08ff
 8002c74:	000f4240 	.word	0x000f4240

08002c78 <HAL_I2C_Master_Transmit>:
 8002c78:	e92d 43f0 	stmdb	sp!, {r4, r5, r6, r7, r8, r9, lr}
 8002c7c:	4604      	mov	r4, r0
 8002c7e:	b085      	sub	sp, #20
 8002c80:	4698      	mov	r8, r3
 8002c82:	460d      	mov	r5, r1
 8002c84:	4691      	mov	r9, r2
 8002c86:	9f0c      	ldr	r7, [sp, #48]	@ 0x30
 8002c88:	f7ff fc5c 	bl	8002544 <HAL_GetTick>
 8002c8c:	f894 303d 	ldrb.w	r3, [r4, #61]	@ 0x3d
 8002c90:	4606      	mov	r6, r0
 8002c92:	2b20      	cmp	r3, #32
 8002c94:	d004      	beq.n	8002ca0 <HAL_I2C_Master_Transmit+0x28>
 8002c96:	2502      	movs	r5, #2
 8002c98:	4628      	mov	r0, r5
 8002c9a:	b005      	add	sp, #20
 8002c9c:	e8bd 83f0 	ldmia.w	sp!, {r4, r5, r6, r7, r8, r9, pc}
 8002ca0:	9000      	str	r0, [sp, #0]
 8002ca2:	2319      	movs	r3, #25
 8002ca4:	2201      	movs	r2, #1
 8002ca6:	4620      	mov	r0, r4
 8002ca8:	495c      	ldr	r1, [pc, #368]	@ (8002e1c <HAL_I2C_Master_Transmit+0x1a4>)
 8002caa:	f7ff fe34 	bl	8002916 <I2C_WaitOnFlagUntilTimeout>
 8002cae:	2800      	cmp	r0, #0
 8002cb0:	d1f1      	bne.n	8002c96 <HAL_I2C_Master_Transmit+0x1e>
 8002cb2:	f894 303c 	ldrb.w	r3, [r4, #60]	@ 0x3c
 8002cb6:	2b01      	cmp	r3, #1
 8002cb8:	d0ed      	beq.n	8002c96 <HAL_I2C_Master_Transmit+0x1e>
 8002cba:	2301      	movs	r3, #1
 8002cbc:	6821      	ldr	r1, [r4, #0]
 8002cbe:	f884 303c 	strb.w	r3, [r4, #60]	@ 0x3c
 8002cc2:	680b      	ldr	r3, [r1, #0]
 8002cc4:	07da      	lsls	r2, r3, #31
 8002cc6:	bf5e      	ittt	pl
 8002cc8:	680b      	ldrpl	r3, [r1, #0]
 8002cca:	f043 0301 	orrpl.w	r3, r3, #1
 8002cce:	600b      	strpl	r3, [r1, #0]
 8002cd0:	680b      	ldr	r3, [r1, #0]
 8002cd2:	f423 6300 	bic.w	r3, r3, #2048	@ 0x800
 8002cd6:	600b      	str	r3, [r1, #0]
 8002cd8:	2321      	movs	r3, #33	@ 0x21
 8002cda:	f884 303d 	strb.w	r3, [r4, #61]	@ 0x3d
 8002cde:	2310      	movs	r3, #16
 8002ce0:	f884 303e 	strb.w	r3, [r4, #62]	@ 0x3e
 8002ce4:	2300      	movs	r3, #0
 8002ce6:	6423      	str	r3, [r4, #64]	@ 0x40
 8002ce8:	f8a4 802a 	strh.w	r8, [r4, #42]	@ 0x2a
 8002cec:	8d63      	ldrh	r3, [r4, #42]	@ 0x2a
 8002cee:	f8c4 9024 	str.w	r9, [r4, #36]	@ 0x24
 8002cf2:	8523      	strh	r3, [r4, #40]	@ 0x28
 8002cf4:	4b4a      	ldr	r3, [pc, #296]	@ (8002e20 <HAL_I2C_Master_Transmit+0x1a8>)
 8002cf6:	62e3      	str	r3, [r4, #44]	@ 0x2c
 8002cf8:	6ae3      	ldr	r3, [r4, #44]	@ 0x2c
 8002cfa:	2b08      	cmp	r3, #8
 8002cfc:	d004      	beq.n	8002d08 <HAL_I2C_Master_Transmit+0x90>
 8002cfe:	2b01      	cmp	r3, #1
 8002d00:	d002      	beq.n	8002d08 <HAL_I2C_Master_Transmit+0x90>
 8002d02:	f513 3f80 	cmn.w	r3, #65536	@ 0x10000
 8002d06:	d104      	bne.n	8002d12 <HAL_I2C_Master_Transmit+0x9a>
 8002d08:	680b      	ldr	r3, [r1, #0]
 8002d0a:	f443 7380 	orr.w	r3, r3, #256	@ 0x100
 8002d0e:	600b      	str	r3, [r1, #0]
 8002d10:	e002      	b.n	8002d18 <HAL_I2C_Master_Transmit+0xa0>
 8002d12:	6b23      	ldr	r3, [r4, #48]	@ 0x30
 8002d14:	2b12      	cmp	r3, #18
 8002d16:	d0f7      	beq.n	8002d08 <HAL_I2C_Master_Transmit+0x90>
 8002d18:	2200      	movs	r2, #0
 8002d1a:	463b      	mov	r3, r7
 8002d1c:	f04f 1101 	mov.w	r1, #65537	@ 0x10001
 8002d20:	4620      	mov	r0, r4
 8002d22:	9600      	str	r6, [sp, #0]
 8002d24:	f7ff fdf7 	bl	8002916 <I2C_WaitOnFlagUntilTimeout>
 8002d28:	6822      	ldr	r2, [r4, #0]
 8002d2a:	b140      	cbz	r0, 8002d3e <HAL_I2C_Master_Transmit+0xc6>
 8002d2c:	6813      	ldr	r3, [r2, #0]
 8002d2e:	05db      	lsls	r3, r3, #23
 8002d30:	d401      	bmi.n	8002d36 <HAL_I2C_Master_Transmit+0xbe>
 8002d32:	2501      	movs	r5, #1
 8002d34:	e7b0      	b.n	8002c98 <HAL_I2C_Master_Transmit+0x20>
 8002d36:	f44f 7300 	mov.w	r3, #512	@ 0x200
 8002d3a:	6423      	str	r3, [r4, #64]	@ 0x40
 8002d3c:	e7f9      	b.n	8002d32 <HAL_I2C_Master_Transmit+0xba>
 8002d3e:	6923      	ldr	r3, [r4, #16]
 8002d40:	f5b3 4f80 	cmp.w	r3, #16384	@ 0x4000
 8002d44:	d121      	bne.n	8002d8a <HAL_I2C_Master_Transmit+0x112>
 8002d46:	f005 05fe 	and.w	r5, r5, #254	@ 0xfe
 8002d4a:	6115      	str	r5, [r2, #16]
 8002d4c:	4633      	mov	r3, r6
 8002d4e:	463a      	mov	r2, r7
 8002d50:	4620      	mov	r0, r4
 8002d52:	4934      	ldr	r1, [pc, #208]	@ (8002e24 <HAL_I2C_Master_Transmit+0x1ac>)
 8002d54:	f7ff fe1f 	bl	8002996 <I2C_WaitOnMasterAddressFlagUntilTimeout>
 8002d58:	4605      	mov	r5, r0
 8002d5a:	2800      	cmp	r0, #0
 8002d5c:	d1e9      	bne.n	8002d32 <HAL_I2C_Master_Transmit+0xba>
 8002d5e:	6823      	ldr	r3, [r4, #0]
 8002d60:	9003      	str	r0, [sp, #12]
 8002d62:	695a      	ldr	r2, [r3, #20]
 8002d64:	9203      	str	r2, [sp, #12]
 8002d66:	699b      	ldr	r3, [r3, #24]
 8002d68:	9303      	str	r3, [sp, #12]
 8002d6a:	9b03      	ldr	r3, [sp, #12]
 8002d6c:	8d23      	ldrh	r3, [r4, #40]	@ 0x28
 8002d6e:	b9f3      	cbnz	r3, 8002dae <HAL_I2C_Master_Transmit+0x136>
 8002d70:	6821      	ldr	r1, [r4, #0]
 8002d72:	680a      	ldr	r2, [r1, #0]
 8002d74:	f442 7200 	orr.w	r2, r2, #512	@ 0x200
 8002d78:	600a      	str	r2, [r1, #0]
 8002d7a:	2220      	movs	r2, #32
 8002d7c:	f884 303c 	strb.w	r3, [r4, #60]	@ 0x3c
 8002d80:	f884 203d 	strb.w	r2, [r4, #61]	@ 0x3d
 8002d84:	f884 303e 	strb.w	r3, [r4, #62]	@ 0x3e
 8002d88:	e786      	b.n	8002c98 <HAL_I2C_Master_Transmit+0x20>
 8002d8a:	11eb      	asrs	r3, r5, #7
 8002d8c:	f003 0306 	and.w	r3, r3, #6
 8002d90:	f043 03f0 	orr.w	r3, r3, #240	@ 0xf0
 8002d94:	6113      	str	r3, [r2, #16]
 8002d96:	4620      	mov	r0, r4
 8002d98:	4633      	mov	r3, r6
 8002d9a:	463a      	mov	r2, r7
 8002d9c:	4922      	ldr	r1, [pc, #136]	@ (8002e28 <HAL_I2C_Master_Transmit+0x1b0>)
 8002d9e:	f7ff fdfa 	bl	8002996 <I2C_WaitOnMasterAddressFlagUntilTimeout>
 8002da2:	2800      	cmp	r0, #0
 8002da4:	d1c5      	bne.n	8002d32 <HAL_I2C_Master_Transmit+0xba>
 8002da6:	6823      	ldr	r3, [r4, #0]
 8002da8:	b2ed      	uxtb	r5, r5
 8002daa:	611d      	str	r5, [r3, #16]
 8002dac:	e7ce      	b.n	8002d4c <HAL_I2C_Master_Transmit+0xd4>
 8002dae:	4632      	mov	r2, r6
 8002db0:	4639      	mov	r1, r7
 8002db2:	4620      	mov	r0, r4
 8002db4:	f7ff fe31 	bl	8002a1a <I2C_WaitOnTXEFlagUntilTimeout>
 8002db8:	b140      	cbz	r0, 8002dcc <HAL_I2C_Master_Transmit+0x154>
 8002dba:	6c23      	ldr	r3, [r4, #64]	@ 0x40
 8002dbc:	2b04      	cmp	r3, #4
 8002dbe:	d1b8      	bne.n	8002d32 <HAL_I2C_Master_Transmit+0xba>
 8002dc0:	6822      	ldr	r2, [r4, #0]
 8002dc2:	6813      	ldr	r3, [r2, #0]
 8002dc4:	f443 7300 	orr.w	r3, r3, #512	@ 0x200
 8002dc8:	6013      	str	r3, [r2, #0]
 8002dca:	e7b2      	b.n	8002d32 <HAL_I2C_Master_Transmit+0xba>
 8002dcc:	6a63      	ldr	r3, [r4, #36]	@ 0x24
 8002dce:	6820      	ldr	r0, [r4, #0]
 8002dd0:	461a      	mov	r2, r3
 8002dd2:	f812 1b01 	ldrb.w	r1, [r2], #1
 8002dd6:	6101      	str	r1, [r0, #16]
 8002dd8:	6262      	str	r2, [r4, #36]	@ 0x24
 8002dda:	8d62      	ldrh	r2, [r4, #42]	@ 0x2a
 8002ddc:	3a01      	subs	r2, #1
 8002dde:	b292      	uxth	r2, r2
 8002de0:	8562      	strh	r2, [r4, #42]	@ 0x2a
 8002de2:	8d22      	ldrh	r2, [r4, #40]	@ 0x28
 8002de4:	f8d0 c014 	ldr.w	ip, [r0, #20]
 8002de8:	1e51      	subs	r1, r2, #1
 8002dea:	b289      	uxth	r1, r1
 8002dec:	f01c 0f04 	tst.w	ip, #4
 8002df0:	8521      	strh	r1, [r4, #40]	@ 0x28
 8002df2:	d00a      	beq.n	8002e0a <HAL_I2C_Master_Transmit+0x192>
 8002df4:	b149      	cbz	r1, 8002e0a <HAL_I2C_Master_Transmit+0x192>
 8002df6:	7859      	ldrb	r1, [r3, #1]
 8002df8:	3302      	adds	r3, #2
 8002dfa:	6101      	str	r1, [r0, #16]
 8002dfc:	6263      	str	r3, [r4, #36]	@ 0x24
 8002dfe:	8d63      	ldrh	r3, [r4, #42]	@ 0x2a
 8002e00:	3a02      	subs	r2, #2
 8002e02:	3b01      	subs	r3, #1
 8002e04:	b29b      	uxth	r3, r3
 8002e06:	8563      	strh	r3, [r4, #42]	@ 0x2a
 8002e08:	8522      	strh	r2, [r4, #40]	@ 0x28
 8002e0a:	4632      	mov	r2, r6
 8002e0c:	4639      	mov	r1, r7
 8002e0e:	4620      	mov	r0, r4
 8002e10:	f7ff fe2d 	bl	8002a6e <I2C_WaitOnBTFFlagUntilTimeout>
 8002e14:	2800      	cmp	r0, #0
 8002e16:	d0a9      	beq.n	8002d6c <HAL_I2C_Master_Transmit+0xf4>
 8002e18:	e7cf      	b.n	8002dba <HAL_I2C_Master_Transmit+0x142>
 8002e1a:	bf00      	nop
 8002e1c:	00100002 	.word	0x00100002
 8002e20:	ffff0000 	.word	0xffff0000
 8002e24:	00010002 	.word	0x00010002
 8002e28:	00010008 	.word	0x00010008

08002e2c <HAL_I2C_Master_Receive>:
 8002e2c:	e92d 43f0 	stmdb	sp!, {r4, r5, r6, r7, r8, r9, lr}
 8002e30:	4698      	mov	r8, r3
 8002e32:	2300      	movs	r3, #0
 8002e34:	4604      	mov	r4, r0
 8002e36:	b089      	sub	sp, #36	@ 0x24
 8002e38:	9302      	str	r3, [sp, #8]
 8002e3a:	460e      	mov	r6, r1
 8002e3c:	4691      	mov	r9, r2
 8002e3e:	9f10      	ldr	r7, [sp, #64]	@ 0x40
 8002e40:	f7ff fb80 	bl	8002544 <HAL_GetTick>
 8002e44:	f894 303d 	ldrb.w	r3, [r4, #61]	@ 0x3d
 8002e48:	4605      	mov	r5, r0
 8002e4a:	2b20      	cmp	r3, #32
 8002e4c:	d004      	beq.n	8002e58 <HAL_I2C_Master_Receive+0x2c>
 8002e4e:	2602      	movs	r6, #2
 8002e50:	4630      	mov	r0, r6
 8002e52:	b009      	add	sp, #36	@ 0x24
 8002e54:	e8bd 83f0 	ldmia.w	sp!, {r4, r5, r6, r7, r8, r9, pc}
 8002e58:	9000      	str	r0, [sp, #0]
 8002e5a:	2319      	movs	r3, #25
 8002e5c:	2201      	movs	r2, #1
 8002e5e:	4620      	mov	r0, r4
 8002e60:	498f      	ldr	r1, [pc, #572]	@ (80030a0 <HAL_I2C_Master_Receive+0x274>)
 8002e62:	f7ff fd58 	bl	8002916 <I2C_WaitOnFlagUntilTimeout>
 8002e66:	2800      	cmp	r0, #0
 8002e68:	d1f1      	bne.n	8002e4e <HAL_I2C_Master_Receive+0x22>
 8002e6a:	f894 303c 	ldrb.w	r3, [r4, #60]	@ 0x3c
 8002e6e:	2b01      	cmp	r3, #1
 8002e70:	d0ed      	beq.n	8002e4e <HAL_I2C_Master_Receive+0x22>
 8002e72:	2301      	movs	r3, #1
 8002e74:	6821      	ldr	r1, [r4, #0]
 8002e76:	f884 303c 	strb.w	r3, [r4, #60]	@ 0x3c
 8002e7a:	680b      	ldr	r3, [r1, #0]
 8002e7c:	07db      	lsls	r3, r3, #31
 8002e7e:	bf5e      	ittt	pl
 8002e80:	680b      	ldrpl	r3, [r1, #0]
 8002e82:	f043 0301 	orrpl.w	r3, r3, #1
 8002e86:	600b      	strpl	r3, [r1, #0]
 8002e88:	680b      	ldr	r3, [r1, #0]
 8002e8a:	f423 6300 	bic.w	r3, r3, #2048	@ 0x800
 8002e8e:	600b      	str	r3, [r1, #0]
 8002e90:	2322      	movs	r3, #34	@ 0x22
 8002e92:	f884 303d 	strb.w	r3, [r4, #61]	@ 0x3d
 8002e96:	2310      	movs	r3, #16
 8002e98:	f884 303e 	strb.w	r3, [r4, #62]	@ 0x3e
 8002e9c:	2300      	movs	r3, #0
 8002e9e:	6423      	str	r3, [r4, #64]	@ 0x40
 8002ea0:	f8a4 802a 	strh.w	r8, [r4, #42]	@ 0x2a
 8002ea4:	8d63      	ldrh	r3, [r4, #42]	@ 0x2a
 8002ea6:	f8c4 9024 	str.w	r9, [r4, #36]	@ 0x24
 8002eaa:	8523      	strh	r3, [r4, #40]	@ 0x28
 8002eac:	4b7d      	ldr	r3, [pc, #500]	@ (80030a4 <HAL_I2C_Master_Receive+0x278>)
 8002eae:	62e3      	str	r3, [r4, #44]	@ 0x2c
 8002eb0:	6ae3      	ldr	r3, [r4, #44]	@ 0x2c
 8002eb2:	680a      	ldr	r2, [r1, #0]
 8002eb4:	2b08      	cmp	r3, #8
 8002eb6:	f442 6280 	orr.w	r2, r2, #1024	@ 0x400
 8002eba:	600a      	str	r2, [r1, #0]
 8002ebc:	d004      	beq.n	8002ec8 <HAL_I2C_Master_Receive+0x9c>
 8002ebe:	2b01      	cmp	r3, #1
 8002ec0:	d002      	beq.n	8002ec8 <HAL_I2C_Master_Receive+0x9c>
 8002ec2:	f513 3f80 	cmn.w	r3, #65536	@ 0x10000
 8002ec6:	d104      	bne.n	8002ed2 <HAL_I2C_Master_Receive+0xa6>
 8002ec8:	680b      	ldr	r3, [r1, #0]
 8002eca:	f443 7380 	orr.w	r3, r3, #256	@ 0x100
 8002ece:	600b      	str	r3, [r1, #0]
 8002ed0:	e002      	b.n	8002ed8 <HAL_I2C_Master_Receive+0xac>
 8002ed2:	6b23      	ldr	r3, [r4, #48]	@ 0x30
 8002ed4:	2b11      	cmp	r3, #17
 8002ed6:	d0f7      	beq.n	8002ec8 <HAL_I2C_Master_Receive+0x9c>
 8002ed8:	463b      	mov	r3, r7
 8002eda:	2200      	movs	r2, #0
 8002edc:	f04f 1101 	mov.w	r1, #65537	@ 0x10001
 8002ee0:	4620      	mov	r0, r4
 8002ee2:	9500      	str	r5, [sp, #0]
 8002ee4:	f7ff fd17 	bl	8002916 <I2C_WaitOnFlagUntilTimeout>
 8002ee8:	6823      	ldr	r3, [r4, #0]
 8002eea:	b138      	cbz	r0, 8002efc <HAL_I2C_Master_Receive+0xd0>
 8002eec:	681b      	ldr	r3, [r3, #0]
 8002eee:	05d8      	lsls	r0, r3, #23
 8002ef0:	bf44      	itt	mi
 8002ef2:	f44f 7300 	movmi.w	r3, #512	@ 0x200
 8002ef6:	6423      	strmi	r3, [r4, #64]	@ 0x40
 8002ef8:	2601      	movs	r6, #1
 8002efa:	e7a9      	b.n	8002e50 <HAL_I2C_Master_Receive+0x24>
 8002efc:	6922      	ldr	r2, [r4, #16]
 8002efe:	f5b2 4f80 	cmp.w	r2, #16384	@ 0x4000
 8002f02:	d129      	bne.n	8002f58 <HAL_I2C_Master_Receive+0x12c>
 8002f04:	f046 0601 	orr.w	r6, r6, #1
 8002f08:	b2f6      	uxtb	r6, r6
 8002f0a:	611e      	str	r6, [r3, #16]
 8002f0c:	462b      	mov	r3, r5
 8002f0e:	463a      	mov	r2, r7
 8002f10:	4620      	mov	r0, r4
 8002f12:	4965      	ldr	r1, [pc, #404]	@ (80030a8 <HAL_I2C_Master_Receive+0x27c>)
 8002f14:	f7ff fd3f 	bl	8002996 <I2C_WaitOnMasterAddressFlagUntilTimeout>
 8002f18:	4606      	mov	r6, r0
 8002f1a:	2800      	cmp	r0, #0
 8002f1c:	d1ec      	bne.n	8002ef8 <HAL_I2C_Master_Receive+0xcc>
 8002f1e:	8d22      	ldrh	r2, [r4, #40]	@ 0x28
 8002f20:	6823      	ldr	r3, [r4, #0]
 8002f22:	2a00      	cmp	r2, #0
 8002f24:	d14d      	bne.n	8002fc2 <HAL_I2C_Master_Receive+0x196>
 8002f26:	9003      	str	r0, [sp, #12]
 8002f28:	695a      	ldr	r2, [r3, #20]
 8002f2a:	9203      	str	r2, [sp, #12]
 8002f2c:	699a      	ldr	r2, [r3, #24]
 8002f2e:	9203      	str	r2, [sp, #12]
 8002f30:	9a03      	ldr	r2, [sp, #12]
 8002f32:	681a      	ldr	r2, [r3, #0]
 8002f34:	f442 7200 	orr.w	r2, r2, #512	@ 0x200
 8002f38:	601a      	str	r2, [r3, #0]
 8002f3a:	f8df 8170 	ldr.w	r8, [pc, #368]	@ 80030ac <HAL_I2C_Master_Receive+0x280>
 8002f3e:	f8df 9170 	ldr.w	r9, [pc, #368]	@ 80030b0 <HAL_I2C_Master_Receive+0x284>
 8002f42:	8d23      	ldrh	r3, [r4, #40]	@ 0x28
 8002f44:	2b00      	cmp	r3, #0
 8002f46:	d16c      	bne.n	8003022 <HAL_I2C_Master_Receive+0x1f6>
 8002f48:	2220      	movs	r2, #32
 8002f4a:	f884 303c 	strb.w	r3, [r4, #60]	@ 0x3c
 8002f4e:	f884 203d 	strb.w	r2, [r4, #61]	@ 0x3d
 8002f52:	f884 303e 	strb.w	r3, [r4, #62]	@ 0x3e
 8002f56:	e77b      	b.n	8002e50 <HAL_I2C_Master_Receive+0x24>
 8002f58:	ea4f 18e6 	mov.w	r8, r6, asr #7
 8002f5c:	f008 0806 	and.w	r8, r8, #6
 8002f60:	f048 02f0 	orr.w	r2, r8, #240	@ 0xf0
 8002f64:	611a      	str	r2, [r3, #16]
 8002f66:	4620      	mov	r0, r4
 8002f68:	462b      	mov	r3, r5
 8002f6a:	463a      	mov	r2, r7
 8002f6c:	4951      	ldr	r1, [pc, #324]	@ (80030b4 <HAL_I2C_Master_Receive+0x288>)
 8002f6e:	f7ff fd12 	bl	8002996 <I2C_WaitOnMasterAddressFlagUntilTimeout>
 8002f72:	2800      	cmp	r0, #0
 8002f74:	d1c0      	bne.n	8002ef8 <HAL_I2C_Master_Receive+0xcc>
 8002f76:	6823      	ldr	r3, [r4, #0]
 8002f78:	b2f6      	uxtb	r6, r6
 8002f7a:	463a      	mov	r2, r7
 8002f7c:	611e      	str	r6, [r3, #16]
 8002f7e:	4620      	mov	r0, r4
 8002f80:	462b      	mov	r3, r5
 8002f82:	4949      	ldr	r1, [pc, #292]	@ (80030a8 <HAL_I2C_Master_Receive+0x27c>)
 8002f84:	f7ff fd07 	bl	8002996 <I2C_WaitOnMasterAddressFlagUntilTimeout>
 8002f88:	4602      	mov	r2, r0
 8002f8a:	2800      	cmp	r0, #0
 8002f8c:	d1b4      	bne.n	8002ef8 <HAL_I2C_Master_Receive+0xcc>
 8002f8e:	6823      	ldr	r3, [r4, #0]
 8002f90:	9007      	str	r0, [sp, #28]
 8002f92:	6959      	ldr	r1, [r3, #20]
 8002f94:	4620      	mov	r0, r4
 8002f96:	9107      	str	r1, [sp, #28]
 8002f98:	6999      	ldr	r1, [r3, #24]
 8002f9a:	9107      	str	r1, [sp, #28]
 8002f9c:	9907      	ldr	r1, [sp, #28]
 8002f9e:	6819      	ldr	r1, [r3, #0]
 8002fa0:	f441 7180 	orr.w	r1, r1, #256	@ 0x100
 8002fa4:	6019      	str	r1, [r3, #0]
 8002fa6:	463b      	mov	r3, r7
 8002fa8:	f04f 1101 	mov.w	r1, #65537	@ 0x10001
 8002fac:	9500      	str	r5, [sp, #0]
 8002fae:	f7ff fcb2 	bl	8002916 <I2C_WaitOnFlagUntilTimeout>
 8002fb2:	6822      	ldr	r2, [r4, #0]
 8002fb4:	b108      	cbz	r0, 8002fba <HAL_I2C_Master_Receive+0x18e>
 8002fb6:	6813      	ldr	r3, [r2, #0]
 8002fb8:	e799      	b.n	8002eee <HAL_I2C_Master_Receive+0xc2>
 8002fba:	f048 03f1 	orr.w	r3, r8, #241	@ 0xf1
 8002fbe:	6113      	str	r3, [r2, #16]
 8002fc0:	e7a4      	b.n	8002f0c <HAL_I2C_Master_Receive+0xe0>
 8002fc2:	2a01      	cmp	r2, #1
 8002fc4:	d111      	bne.n	8002fea <HAL_I2C_Master_Receive+0x1be>
 8002fc6:	681a      	ldr	r2, [r3, #0]
 8002fc8:	f422 6280 	bic.w	r2, r2, #1024	@ 0x400
 8002fcc:	601a      	str	r2, [r3, #0]
 8002fce:	b672      	cpsid	i
 8002fd0:	6823      	ldr	r3, [r4, #0]
 8002fd2:	9004      	str	r0, [sp, #16]
 8002fd4:	695a      	ldr	r2, [r3, #20]
 8002fd6:	9204      	str	r2, [sp, #16]
 8002fd8:	699a      	ldr	r2, [r3, #24]
 8002fda:	9204      	str	r2, [sp, #16]
 8002fdc:	9a04      	ldr	r2, [sp, #16]
 8002fde:	681a      	ldr	r2, [r3, #0]
 8002fe0:	f442 7200 	orr.w	r2, r2, #512	@ 0x200
 8002fe4:	601a      	str	r2, [r3, #0]
 8002fe6:	b662      	cpsie	i
 8002fe8:	e7a7      	b.n	8002f3a <HAL_I2C_Master_Receive+0x10e>
 8002fea:	2a02      	cmp	r2, #2
 8002fec:	681a      	ldr	r2, [r3, #0]
 8002fee:	d10e      	bne.n	800300e <HAL_I2C_Master_Receive+0x1e2>
 8002ff0:	f442 6200 	orr.w	r2, r2, #2048	@ 0x800
 8002ff4:	601a      	str	r2, [r3, #0]
 8002ff6:	b672      	cpsid	i
 8002ff8:	6823      	ldr	r3, [r4, #0]
 8002ffa:	9005      	str	r0, [sp, #20]
 8002ffc:	695a      	ldr	r2, [r3, #20]
 8002ffe:	9205      	str	r2, [sp, #20]
 8003000:	699a      	ldr	r2, [r3, #24]
 8003002:	9205      	str	r2, [sp, #20]
 8003004:	9a05      	ldr	r2, [sp, #20]
 8003006:	681a      	ldr	r2, [r3, #0]
 8003008:	f422 6280 	bic.w	r2, r2, #1024	@ 0x400
 800300c:	e7ea      	b.n	8002fe4 <HAL_I2C_Master_Receive+0x1b8>
 800300e:	f442 6280 	orr.w	r2, r2, #1024	@ 0x400
 8003012:	601a      	str	r2, [r3, #0]
 8003014:	9006      	str	r0, [sp, #24]
 8003016:	695a      	ldr	r2, [r3, #20]
 8003018:	9206      	str	r2, [sp, #24]
 800301a:	699b      	ldr	r3, [r3, #24]
 800301c:	9306      	str	r3, [sp, #24]
 800301e:	9b06      	ldr	r3, [sp, #24]
 8003020:	e78b      	b.n	8002f3a <HAL_I2C_Master_Receive+0x10e>
 8003022:	2b03      	cmp	r3, #3
 8003024:	f200 8088 	bhi.w	8003138 <HAL_I2C_Master_Receive+0x30c>
 8003028:	2b01      	cmp	r3, #1
 800302a:	d116      	bne.n	800305a <HAL_I2C_Master_Receive+0x22e>
 800302c:	462a      	mov	r2, r5
 800302e:	4639      	mov	r1, r7
 8003030:	4620      	mov	r0, r4
 8003032:	f7ff fd46 	bl	8002ac2 <I2C_WaitOnRXNEFlagUntilTimeout>
 8003036:	2800      	cmp	r0, #0
 8003038:	f47f af5e 	bne.w	8002ef8 <HAL_I2C_Master_Receive+0xcc>
 800303c:	6823      	ldr	r3, [r4, #0]
 800303e:	691a      	ldr	r2, [r3, #16]
 8003040:	6a63      	ldr	r3, [r4, #36]	@ 0x24
 8003042:	701a      	strb	r2, [r3, #0]
 8003044:	6a63      	ldr	r3, [r4, #36]	@ 0x24
 8003046:	3301      	adds	r3, #1
 8003048:	6263      	str	r3, [r4, #36]	@ 0x24
 800304a:	8d23      	ldrh	r3, [r4, #40]	@ 0x28
 800304c:	3b01      	subs	r3, #1
 800304e:	8523      	strh	r3, [r4, #40]	@ 0x28
 8003050:	8d63      	ldrh	r3, [r4, #42]	@ 0x2a
 8003052:	3b01      	subs	r3, #1
 8003054:	b29b      	uxth	r3, r3
 8003056:	8563      	strh	r3, [r4, #42]	@ 0x2a
 8003058:	e773      	b.n	8002f42 <HAL_I2C_Master_Receive+0x116>
 800305a:	2b02      	cmp	r3, #2
 800305c:	f04f 0200 	mov.w	r2, #0
 8003060:	463b      	mov	r3, r7
 8003062:	4641      	mov	r1, r8
 8003064:	4620      	mov	r0, r4
 8003066:	9500      	str	r5, [sp, #0]
 8003068:	d126      	bne.n	80030b8 <HAL_I2C_Master_Receive+0x28c>
 800306a:	f7ff fc54 	bl	8002916 <I2C_WaitOnFlagUntilTimeout>
 800306e:	2800      	cmp	r0, #0
 8003070:	f47f af42 	bne.w	8002ef8 <HAL_I2C_Master_Receive+0xcc>
 8003074:	b672      	cpsid	i
 8003076:	6823      	ldr	r3, [r4, #0]
 8003078:	681a      	ldr	r2, [r3, #0]
 800307a:	f442 7200 	orr.w	r2, r2, #512	@ 0x200
 800307e:	601a      	str	r2, [r3, #0]
 8003080:	691a      	ldr	r2, [r3, #16]
 8003082:	6a63      	ldr	r3, [r4, #36]	@ 0x24
 8003084:	701a      	strb	r2, [r3, #0]
 8003086:	6a63      	ldr	r3, [r4, #36]	@ 0x24
 8003088:	3301      	adds	r3, #1
 800308a:	6263      	str	r3, [r4, #36]	@ 0x24
 800308c:	8d23      	ldrh	r3, [r4, #40]	@ 0x28
 800308e:	3b01      	subs	r3, #1
 8003090:	8523      	strh	r3, [r4, #40]	@ 0x28
 8003092:	8d63      	ldrh	r3, [r4, #42]	@ 0x2a
 8003094:	3b01      	subs	r3, #1
 8003096:	b29b      	uxth	r3, r3
 8003098:	8563      	strh	r3, [r4, #42]	@ 0x2a
 800309a:	b662      	cpsie	i
 800309c:	e7ce      	b.n	800303c <HAL_I2C_Master_Receive+0x210>
 800309e:	bf00      	nop
 80030a0:	00100002 	.word	0x00100002
 80030a4:	ffff0000 	.word	0xffff0000
 80030a8:	00010002 	.word	0x00010002
 80030ac:	00010004 	.word	0x00010004
 80030b0:	2000000c 	.word	0x2000000c
 80030b4:	00010008 	.word	0x00010008
 80030b8:	f7ff fc2d 	bl	8002916 <I2C_WaitOnFlagUntilTimeout>
 80030bc:	2800      	cmp	r0, #0
 80030be:	f47f af1b 	bne.w	8002ef8 <HAL_I2C_Master_Receive+0xcc>
 80030c2:	6822      	ldr	r2, [r4, #0]
 80030c4:	6813      	ldr	r3, [r2, #0]
 80030c6:	f423 6380 	bic.w	r3, r3, #1024	@ 0x400
 80030ca:	6013      	str	r3, [r2, #0]
 80030cc:	b672      	cpsid	i
 80030ce:	f246 11a8 	movw	r1, #25000	@ 0x61a8
 80030d2:	6823      	ldr	r3, [r4, #0]
 80030d4:	691a      	ldr	r2, [r3, #16]
 80030d6:	6a63      	ldr	r3, [r4, #36]	@ 0x24
 80030d8:	701a      	strb	r2, [r3, #0]
 80030da:	6a62      	ldr	r2, [r4, #36]	@ 0x24
 80030dc:	1c53      	adds	r3, r2, #1
 80030de:	6263      	str	r3, [r4, #36]	@ 0x24
 80030e0:	8d23      	ldrh	r3, [r4, #40]	@ 0x28
 80030e2:	3b01      	subs	r3, #1
 80030e4:	8523      	strh	r3, [r4, #40]	@ 0x28
 80030e6:	8d63      	ldrh	r3, [r4, #42]	@ 0x2a
 80030e8:	3b01      	subs	r3, #1
 80030ea:	b29b      	uxth	r3, r3
 80030ec:	8563      	strh	r3, [r4, #42]	@ 0x2a
 80030ee:	f8d9 3000 	ldr.w	r3, [r9]
 80030f2:	fbb3 f3f1 	udiv	r3, r3, r1
 80030f6:	2123      	movs	r1, #35	@ 0x23
 80030f8:	434b      	muls	r3, r1
 80030fa:	9302      	str	r3, [sp, #8]
 80030fc:	9b02      	ldr	r3, [sp, #8]
 80030fe:	3b01      	subs	r3, #1
 8003100:	9302      	str	r3, [sp, #8]
 8003102:	9b02      	ldr	r3, [sp, #8]
 8003104:	b96b      	cbnz	r3, 8003122 <HAL_I2C_Master_Receive+0x2f6>
 8003106:	2220      	movs	r2, #32
 8003108:	6323      	str	r3, [r4, #48]	@ 0x30
 800310a:	f884 203d 	strb.w	r2, [r4, #61]	@ 0x3d
 800310e:	f884 303e 	strb.w	r3, [r4, #62]	@ 0x3e
 8003112:	6c22      	ldr	r2, [r4, #64]	@ 0x40
 8003114:	f042 0220 	orr.w	r2, r2, #32
 8003118:	6422      	str	r2, [r4, #64]	@ 0x40
 800311a:	b662      	cpsie	i
 800311c:	f884 303c 	strb.w	r3, [r4, #60]	@ 0x3c
 8003120:	e6ea      	b.n	8002ef8 <HAL_I2C_Master_Receive+0xcc>
 8003122:	6823      	ldr	r3, [r4, #0]
 8003124:	6959      	ldr	r1, [r3, #20]
 8003126:	0749      	lsls	r1, r1, #29
 8003128:	d5e8      	bpl.n	80030fc <HAL_I2C_Master_Receive+0x2d0>
 800312a:	6819      	ldr	r1, [r3, #0]
 800312c:	f441 7100 	orr.w	r1, r1, #512	@ 0x200
 8003130:	6019      	str	r1, [r3, #0]
 8003132:	691b      	ldr	r3, [r3, #16]
 8003134:	7053      	strb	r3, [r2, #1]
 8003136:	e7a6      	b.n	8003086 <HAL_I2C_Master_Receive+0x25a>
 8003138:	462a      	mov	r2, r5
 800313a:	4639      	mov	r1, r7
 800313c:	4620      	mov	r0, r4
 800313e:	f7ff fcc0 	bl	8002ac2 <I2C_WaitOnRXNEFlagUntilTimeout>
 8003142:	2800      	cmp	r0, #0
 8003144:	f47f aed8 	bne.w	8002ef8 <HAL_I2C_Master_Receive+0xcc>
 8003148:	6823      	ldr	r3, [r4, #0]
 800314a:	691a      	ldr	r2, [r3, #16]
 800314c:	6a63      	ldr	r3, [r4, #36]	@ 0x24
 800314e:	701a      	strb	r2, [r3, #0]
 8003150:	8d62      	ldrh	r2, [r4, #42]	@ 0x2a
 8003152:	6a61      	ldr	r1, [r4, #36]	@ 0x24
 8003154:	3a01      	subs	r2, #1
 8003156:	b292      	uxth	r2, r2
 8003158:	1c4b      	adds	r3, r1, #1
 800315a:	8562      	strh	r2, [r4, #42]	@ 0x2a
 800315c:	6822      	ldr	r2, [r4, #0]
 800315e:	6263      	str	r3, [r4, #36]	@ 0x24
 8003160:	8d23      	ldrh	r3, [r4, #40]	@ 0x28
 8003162:	6950      	ldr	r0, [r2, #20]
 8003164:	3b01      	subs	r3, #1
 8003166:	b29b      	uxth	r3, r3
 8003168:	0740      	lsls	r0, r0, #29
 800316a:	8523      	strh	r3, [r4, #40]	@ 0x28
 800316c:	f57f aee9 	bpl.w	8002f42 <HAL_I2C_Master_Receive+0x116>
 8003170:	2b03      	cmp	r3, #3
 8003172:	bf02      	ittt	eq
 8003174:	6813      	ldreq	r3, [r2, #0]
 8003176:	f423 6380 	biceq.w	r3, r3, #1024	@ 0x400
 800317a:	6013      	streq	r3, [r2, #0]
 800317c:	6913      	ldr	r3, [r2, #16]
 800317e:	704b      	strb	r3, [r1, #1]
 8003180:	e760      	b.n	8003044 <HAL_I2C_Master_Receive+0x218>
 8003182:	bf00      	nop

08003184 <HAL_I2C_MasterTxCpltCallback>:
 8003184:	4770      	bx	lr

08003186 <HAL_I2C_MasterRxCpltCallback>:
 8003186:	4770      	bx	lr

08003188 <HAL_I2C_SlaveTxCpltCallback>:
 8003188:	4770      	bx	lr

0800318a <HAL_I2C_SlaveRxCpltCallback>:
 800318a:	4770      	bx	lr

0800318c <HAL_I2C_AddrCallback>:
 800318c:	4770      	bx	lr

0800318e <HAL_I2C_ListenCpltCallback>:
 800318e:	4770      	bx	lr

08003190 <HAL_I2C_MemTxCpltCallback>:
 8003190:	4770      	bx	lr

08003192 <I2C_MemoryTransmit_TXE_BTF>:
 8003192:	f890 203d 	ldrb.w	r2, [r0, #61]	@ 0x3d
 8003196:	b508      	push	{r3, lr}
 8003198:	6d03      	ldr	r3, [r0, #80]	@ 0x50
 800319a:	b2d2      	uxtb	r2, r2
 800319c:	b983      	cbnz	r3, 80031c0 <I2C_MemoryTransmit_TXE_BTF+0x2e>
 800319e:	6cc3      	ldr	r3, [r0, #76]	@ 0x4c
 80031a0:	6802      	ldr	r2, [r0, #0]
 80031a2:	2b01      	cmp	r3, #1
 80031a4:	6c83      	ldr	r3, [r0, #72]	@ 0x48
 80031a6:	d105      	bne.n	80031b4 <I2C_MemoryTransmit_TXE_BTF+0x22>
 80031a8:	b2db      	uxtb	r3, r3
 80031aa:	6113      	str	r3, [r2, #16]
 80031ac:	6d03      	ldr	r3, [r0, #80]	@ 0x50
 80031ae:	3302      	adds	r3, #2
 80031b0:	6503      	str	r3, [r0, #80]	@ 0x50
 80031b2:	bd08      	pop	{r3, pc}
 80031b4:	f3c3 2307 	ubfx	r3, r3, #8, #8
 80031b8:	6113      	str	r3, [r2, #16]
 80031ba:	6d03      	ldr	r3, [r0, #80]	@ 0x50
 80031bc:	3301      	adds	r3, #1
 80031be:	e7f7      	b.n	80031b0 <I2C_MemoryTransmit_TXE_BTF+0x1e>
 80031c0:	6d03      	ldr	r3, [r0, #80]	@ 0x50
 80031c2:	2b01      	cmp	r3, #1
 80031c4:	d103      	bne.n	80031ce <I2C_MemoryTransmit_TXE_BTF+0x3c>
 80031c6:	6c83      	ldr	r3, [r0, #72]	@ 0x48
 80031c8:	6802      	ldr	r2, [r0, #0]
 80031ca:	b2db      	uxtb	r3, r3
 80031cc:	e7f4      	b.n	80031b8 <I2C_MemoryTransmit_TXE_BTF+0x26>
 80031ce:	6d03      	ldr	r3, [r0, #80]	@ 0x50
 80031d0:	2b02      	cmp	r3, #2
 80031d2:	d12f      	bne.n	8003234 <I2C_MemoryTransmit_TXE_BTF+0xa2>
 80031d4:	2a22      	cmp	r2, #34	@ 0x22
 80031d6:	d105      	bne.n	80031e4 <I2C_MemoryTransmit_TXE_BTF+0x52>
 80031d8:	6802      	ldr	r2, [r0, #0]
 80031da:	6813      	ldr	r3, [r2, #0]
 80031dc:	f443 7380 	orr.w	r3, r3, #256	@ 0x100
 80031e0:	6013      	str	r3, [r2, #0]
 80031e2:	e7ea      	b.n	80031ba <I2C_MemoryTransmit_TXE_BTF+0x28>
 80031e4:	8d43      	ldrh	r3, [r0, #42]	@ 0x2a
 80031e6:	b29b      	uxth	r3, r3
 80031e8:	b163      	cbz	r3, 8003204 <I2C_MemoryTransmit_TXE_BTF+0x72>
 80031ea:	2a21      	cmp	r2, #33	@ 0x21
 80031ec:	d10a      	bne.n	8003204 <I2C_MemoryTransmit_TXE_BTF+0x72>
 80031ee:	6a43      	ldr	r3, [r0, #36]	@ 0x24
 80031f0:	6802      	ldr	r2, [r0, #0]
 80031f2:	f813 1b01 	ldrb.w	r1, [r3], #1
 80031f6:	6111      	str	r1, [r2, #16]
 80031f8:	6243      	str	r3, [r0, #36]	@ 0x24
 80031fa:	8d43      	ldrh	r3, [r0, #42]	@ 0x2a
 80031fc:	3b01      	subs	r3, #1
 80031fe:	b29b      	uxth	r3, r3
 8003200:	8543      	strh	r3, [r0, #42]	@ 0x2a
 8003202:	e7d6      	b.n	80031b2 <I2C_MemoryTransmit_TXE_BTF+0x20>
 8003204:	8d43      	ldrh	r3, [r0, #42]	@ 0x2a
 8003206:	b29b      	uxth	r3, r3
 8003208:	2b00      	cmp	r3, #0
 800320a:	d1d2      	bne.n	80031b2 <I2C_MemoryTransmit_TXE_BTF+0x20>
 800320c:	2a21      	cmp	r2, #33	@ 0x21
 800320e:	d1d0      	bne.n	80031b2 <I2C_MemoryTransmit_TXE_BTF+0x20>
 8003210:	6802      	ldr	r2, [r0, #0]
 8003212:	6851      	ldr	r1, [r2, #4]
 8003214:	f421 61e0 	bic.w	r1, r1, #1792	@ 0x700
 8003218:	6051      	str	r1, [r2, #4]
 800321a:	6811      	ldr	r1, [r2, #0]
 800321c:	f441 7100 	orr.w	r1, r1, #512	@ 0x200
 8003220:	6011      	str	r1, [r2, #0]
 8003222:	2220      	movs	r2, #32
 8003224:	6303      	str	r3, [r0, #48]	@ 0x30
 8003226:	f880 203d 	strb.w	r2, [r0, #61]	@ 0x3d
 800322a:	f880 303e 	strb.w	r3, [r0, #62]	@ 0x3e
 800322e:	f7ff ffaf 	bl	8003190 <HAL_I2C_MemTxCpltCallback>
 8003232:	e7be      	b.n	80031b2 <I2C_MemoryTransmit_TXE_BTF+0x20>
 8003234:	6803      	ldr	r3, [r0, #0]
 8003236:	695a      	ldr	r2, [r3, #20]
 8003238:	0612      	lsls	r2, r2, #24
 800323a:	bf44      	itt	mi
 800323c:	2200      	movmi	r2, #0
 800323e:	611a      	strmi	r2, [r3, #16]
 8003240:	e7b7      	b.n	80031b2 <I2C_MemoryTransmit_TXE_BTF+0x20>

08003242 <HAL_I2C_MemRxCpltCallback>:
 8003242:	4770      	bx	lr

08003244 <HAL_I2C_ErrorCallback>:
 8003244:	4770      	bx	lr

08003246 <HAL_I2C_AbortCpltCallback>:
 8003246:	4770      	bx	lr

08003248 <I2C_DMAAbort>:
 8003248:	2300      	movs	r3, #0
 800324a:	b537      	push	{r0, r1, r2, r4, r5, lr}
 800324c:	f246 11a8 	movw	r1, #25000	@ 0x61a8
 8003250:	9301      	str	r3, [sp, #4]
 8003252:	4b2c      	ldr	r3, [pc, #176]	@ (8003304 <I2C_DMAAbort+0xbc>)
 8003254:	6a40      	ldr	r0, [r0, #36]	@ 0x24
 8003256:	681b      	ldr	r3, [r3, #0]
 8003258:	f890 203d 	ldrb.w	r2, [r0, #61]	@ 0x3d
 800325c:	fbb3 f3f1 	udiv	r3, r3, r1
 8003260:	2123      	movs	r1, #35	@ 0x23
 8003262:	434b      	muls	r3, r1
 8003264:	9301      	str	r3, [sp, #4]
 8003266:	6803      	ldr	r3, [r0, #0]
 8003268:	b2d2      	uxtb	r2, r2
 800326a:	9901      	ldr	r1, [sp, #4]
 800326c:	bb41      	cbnz	r1, 80032c0 <I2C_DMAAbort+0x78>
 800326e:	6c01      	ldr	r1, [r0, #64]	@ 0x40
 8003270:	f041 0120 	orr.w	r1, r1, #32
 8003274:	6401      	str	r1, [r0, #64]	@ 0x40
 8003276:	6b44      	ldr	r4, [r0, #52]	@ 0x34
 8003278:	b10c      	cbz	r4, 800327e <I2C_DMAAbort+0x36>
 800327a:	2100      	movs	r1, #0
 800327c:	62a1      	str	r1, [r4, #40]	@ 0x28
 800327e:	6b81      	ldr	r1, [r0, #56]	@ 0x38
 8003280:	b109      	cbz	r1, 8003286 <I2C_DMAAbort+0x3e>
 8003282:	2500      	movs	r5, #0
 8003284:	628d      	str	r5, [r1, #40]	@ 0x28
 8003286:	681d      	ldr	r5, [r3, #0]
 8003288:	f425 6580 	bic.w	r5, r5, #1024	@ 0x400
 800328c:	601d      	str	r5, [r3, #0]
 800328e:	2500      	movs	r5, #0
 8003290:	8545      	strh	r5, [r0, #42]	@ 0x2a
 8003292:	b104      	cbz	r4, 8003296 <I2C_DMAAbort+0x4e>
 8003294:	6365      	str	r5, [r4, #52]	@ 0x34
 8003296:	b101      	cbz	r1, 800329a <I2C_DMAAbort+0x52>
 8003298:	634d      	str	r5, [r1, #52]	@ 0x34
 800329a:	6819      	ldr	r1, [r3, #0]
 800329c:	f021 0101 	bic.w	r1, r1, #1
 80032a0:	6019      	str	r1, [r3, #0]
 80032a2:	f890 103d 	ldrb.w	r1, [r0, #61]	@ 0x3d
 80032a6:	2960      	cmp	r1, #96	@ 0x60
 80032a8:	d111      	bne.n	80032ce <I2C_DMAAbort+0x86>
 80032aa:	2320      	movs	r3, #32
 80032ac:	f880 303d 	strb.w	r3, [r0, #61]	@ 0x3d
 80032b0:	2300      	movs	r3, #0
 80032b2:	f880 303e 	strb.w	r3, [r0, #62]	@ 0x3e
 80032b6:	6403      	str	r3, [r0, #64]	@ 0x40
 80032b8:	f7ff ffc5 	bl	8003246 <HAL_I2C_AbortCpltCallback>
 80032bc:	b003      	add	sp, #12
 80032be:	bd30      	pop	{r4, r5, pc}
 80032c0:	9901      	ldr	r1, [sp, #4]
 80032c2:	3901      	subs	r1, #1
 80032c4:	9101      	str	r1, [sp, #4]
 80032c6:	6819      	ldr	r1, [r3, #0]
 80032c8:	0589      	lsls	r1, r1, #22
 80032ca:	d4ce      	bmi.n	800326a <I2C_DMAAbort+0x22>
 80032cc:	e7d3      	b.n	8003276 <I2C_DMAAbort+0x2e>
 80032ce:	f002 0228 	and.w	r2, r2, #40	@ 0x28
 80032d2:	2a28      	cmp	r2, #40	@ 0x28
 80032d4:	d10e      	bne.n	80032f4 <I2C_DMAAbort+0xac>
 80032d6:	6819      	ldr	r1, [r3, #0]
 80032d8:	f041 0101 	orr.w	r1, r1, #1
 80032dc:	6019      	str	r1, [r3, #0]
 80032de:	6819      	ldr	r1, [r3, #0]
 80032e0:	f441 6180 	orr.w	r1, r1, #1024	@ 0x400
 80032e4:	6019      	str	r1, [r3, #0]
 80032e6:	2300      	movs	r3, #0
 80032e8:	6303      	str	r3, [r0, #48]	@ 0x30
 80032ea:	f880 203d 	strb.w	r2, [r0, #61]	@ 0x3d
 80032ee:	f7ff ffa9 	bl	8003244 <HAL_I2C_ErrorCallback>
 80032f2:	e7e3      	b.n	80032bc <I2C_DMAAbort+0x74>
 80032f4:	2320      	movs	r3, #32
 80032f6:	f880 303d 	strb.w	r3, [r0, #61]	@ 0x3d
 80032fa:	2300      	movs	r3, #0
 80032fc:	f880 303e 	strb.w	r3, [r0, #62]	@ 0x3e
 8003300:	e7f5      	b.n	80032ee <I2C_DMAAbort+0xa6>
 8003302:	bf00      	nop
 8003304:	2000000c 	.word	0x2000000c

08003308 <I2C_ITError>:
 8003308:	b510      	push	{r4, lr}
 800330a:	f890 203d 	ldrb.w	r2, [r0, #61]	@ 0x3d
 800330e:	f890 303e 	ldrb.w	r3, [r0, #62]	@ 0x3e
 8003312:	4604      	mov	r4, r0
 8003314:	2b10      	cmp	r3, #16
 8003316:	b2d9      	uxtb	r1, r3
 8003318:	b2d2      	uxtb	r2, r2
 800331a:	6803      	ldr	r3, [r0, #0]
 800331c:	d001      	beq.n	8003322 <I2C_ITError+0x1a>
 800331e:	2940      	cmp	r1, #64	@ 0x40
 8003320:	d113      	bne.n	800334a <I2C_ITError+0x42>
 8003322:	2a22      	cmp	r2, #34	@ 0x22
 8003324:	d111      	bne.n	800334a <I2C_ITError+0x42>
 8003326:	6819      	ldr	r1, [r3, #0]
 8003328:	f421 6100 	bic.w	r1, r1, #2048	@ 0x800
 800332c:	6019      	str	r1, [r3, #0]
 800332e:	6859      	ldr	r1, [r3, #4]
 8003330:	f411 6100 	ands.w	r1, r1, #2048	@ 0x800
 8003334:	d106      	bne.n	8003344 <I2C_ITError+0x3c>
 8003336:	2a60      	cmp	r2, #96	@ 0x60
 8003338:	bf1e      	ittt	ne
 800333a:	2220      	movne	r2, #32
 800333c:	f884 203d 	strbne.w	r2, [r4, #61]	@ 0x3d
 8003340:	f884 103e 	strbne.w	r1, [r4, #62]	@ 0x3e
 8003344:	2200      	movs	r2, #0
 8003346:	6322      	str	r2, [r4, #48]	@ 0x30
 8003348:	e007      	b.n	800335a <I2C_ITError+0x52>
 800334a:	f002 0128 	and.w	r1, r2, #40	@ 0x28
 800334e:	2928      	cmp	r1, #40	@ 0x28
 8003350:	d1ed      	bne.n	800332e <I2C_ITError+0x26>
 8003352:	2200      	movs	r2, #0
 8003354:	6322      	str	r2, [r4, #48]	@ 0x30
 8003356:	f884 103d 	strb.w	r1, [r4, #61]	@ 0x3d
 800335a:	685a      	ldr	r2, [r3, #4]
 800335c:	f412 6200 	ands.w	r2, r2, #2048	@ 0x800
 8003360:	d04f      	beq.n	8003402 <I2C_ITError+0xfa>
 8003362:	685a      	ldr	r2, [r3, #4]
 8003364:	6b60      	ldr	r0, [r4, #52]	@ 0x34
 8003366:	f422 6200 	bic.w	r2, r2, #2048	@ 0x800
 800336a:	605a      	str	r2, [r3, #4]
 800336c:	f890 3021 	ldrb.w	r3, [r0, #33]	@ 0x21
 8003370:	2b01      	cmp	r3, #1
 8003372:	4b37      	ldr	r3, [pc, #220]	@ (8003450 <I2C_ITError+0x148>)
 8003374:	d02b      	beq.n	80033ce <I2C_ITError+0xc6>
 8003376:	6343      	str	r3, [r0, #52]	@ 0x34
 8003378:	f7ff f980 	bl	800267c <HAL_DMA_Abort_IT>
 800337c:	b150      	cbz	r0, 8003394 <I2C_ITError+0x8c>
 800337e:	6822      	ldr	r2, [r4, #0]
 8003380:	6b60      	ldr	r0, [r4, #52]	@ 0x34
 8003382:	6813      	ldr	r3, [r2, #0]
 8003384:	f023 0301 	bic.w	r3, r3, #1
 8003388:	6013      	str	r3, [r2, #0]
 800338a:	2320      	movs	r3, #32
 800338c:	f884 303d 	strb.w	r3, [r4, #61]	@ 0x3d
 8003390:	6b43      	ldr	r3, [r0, #52]	@ 0x34
 8003392:	4798      	blx	r3
 8003394:	6c23      	ldr	r3, [r4, #64]	@ 0x40
 8003396:	0719      	lsls	r1, r3, #28
 8003398:	bf1f      	itttt	ne
 800339a:	6822      	ldrne	r2, [r4, #0]
 800339c:	6853      	ldrne	r3, [r2, #4]
 800339e:	f423 63e0 	bicne.w	r3, r3, #1792	@ 0x700
 80033a2:	6053      	strne	r3, [r2, #4]
 80033a4:	f894 303d 	ldrb.w	r3, [r4, #61]	@ 0x3d
 80033a8:	6c22      	ldr	r2, [r4, #64]	@ 0x40
 80033aa:	b2db      	uxtb	r3, r3
 80033ac:	0752      	lsls	r2, r2, #29
 80033ae:	d50d      	bpl.n	80033cc <I2C_ITError+0xc4>
 80033b0:	2b28      	cmp	r3, #40	@ 0x28
 80033b2:	d10b      	bne.n	80033cc <I2C_ITError+0xc4>
 80033b4:	4b27      	ldr	r3, [pc, #156]	@ (8003454 <I2C_ITError+0x14c>)
 80033b6:	2220      	movs	r2, #32
 80033b8:	62e3      	str	r3, [r4, #44]	@ 0x2c
 80033ba:	2300      	movs	r3, #0
 80033bc:	4620      	mov	r0, r4
 80033be:	6323      	str	r3, [r4, #48]	@ 0x30
 80033c0:	f884 203d 	strb.w	r2, [r4, #61]	@ 0x3d
 80033c4:	f884 303e 	strb.w	r3, [r4, #62]	@ 0x3e
 80033c8:	f7ff fee1 	bl	800318e <HAL_I2C_ListenCpltCallback>
 80033cc:	bd10      	pop	{r4, pc}
 80033ce:	6ba0      	ldr	r0, [r4, #56]	@ 0x38
 80033d0:	6343      	str	r3, [r0, #52]	@ 0x34
 80033d2:	f7ff f953 	bl	800267c <HAL_DMA_Abort_IT>
 80033d6:	2800      	cmp	r0, #0
 80033d8:	d0dc      	beq.n	8003394 <I2C_ITError+0x8c>
 80033da:	6823      	ldr	r3, [r4, #0]
 80033dc:	695a      	ldr	r2, [r3, #20]
 80033de:	0651      	lsls	r1, r2, #25
 80033e0:	d505      	bpl.n	80033ee <I2C_ITError+0xe6>
 80033e2:	691a      	ldr	r2, [r3, #16]
 80033e4:	6a63      	ldr	r3, [r4, #36]	@ 0x24
 80033e6:	701a      	strb	r2, [r3, #0]
 80033e8:	6a63      	ldr	r3, [r4, #36]	@ 0x24
 80033ea:	3301      	adds	r3, #1
 80033ec:	6263      	str	r3, [r4, #36]	@ 0x24
 80033ee:	6822      	ldr	r2, [r4, #0]
 80033f0:	6ba0      	ldr	r0, [r4, #56]	@ 0x38
 80033f2:	6813      	ldr	r3, [r2, #0]
 80033f4:	f023 0301 	bic.w	r3, r3, #1
 80033f8:	6013      	str	r3, [r2, #0]
 80033fa:	2320      	movs	r3, #32
 80033fc:	f884 303d 	strb.w	r3, [r4, #61]	@ 0x3d
 8003400:	e7c6      	b.n	8003390 <I2C_ITError+0x88>
 8003402:	f894 103d 	ldrb.w	r1, [r4, #61]	@ 0x3d
 8003406:	2960      	cmp	r1, #96	@ 0x60
 8003408:	d115      	bne.n	8003436 <I2C_ITError+0x12e>
 800340a:	2120      	movs	r1, #32
 800340c:	f884 103d 	strb.w	r1, [r4, #61]	@ 0x3d
 8003410:	6422      	str	r2, [r4, #64]	@ 0x40
 8003412:	695a      	ldr	r2, [r3, #20]
 8003414:	0652      	lsls	r2, r2, #25
 8003416:	d505      	bpl.n	8003424 <I2C_ITError+0x11c>
 8003418:	691a      	ldr	r2, [r3, #16]
 800341a:	6a63      	ldr	r3, [r4, #36]	@ 0x24
 800341c:	701a      	strb	r2, [r3, #0]
 800341e:	6a63      	ldr	r3, [r4, #36]	@ 0x24
 8003420:	3301      	adds	r3, #1
 8003422:	6263      	str	r3, [r4, #36]	@ 0x24
 8003424:	6822      	ldr	r2, [r4, #0]
 8003426:	4620      	mov	r0, r4
 8003428:	6813      	ldr	r3, [r2, #0]
 800342a:	f023 0301 	bic.w	r3, r3, #1
 800342e:	6013      	str	r3, [r2, #0]
 8003430:	f7ff ff09 	bl	8003246 <HAL_I2C_AbortCpltCallback>
 8003434:	e7ae      	b.n	8003394 <I2C_ITError+0x8c>
 8003436:	695a      	ldr	r2, [r3, #20]
 8003438:	0650      	lsls	r0, r2, #25
 800343a:	d505      	bpl.n	8003448 <I2C_ITError+0x140>
 800343c:	691a      	ldr	r2, [r3, #16]
 800343e:	6a63      	ldr	r3, [r4, #36]	@ 0x24
 8003440:	701a      	strb	r2, [r3, #0]
 8003442:	6a63      	ldr	r3, [r4, #36]	@ 0x24
 8003444:	3301      	adds	r3, #1
 8003446:	6263      	str	r3, [r4, #36]	@ 0x24
 8003448:	4620      	mov	r0, r4
 800344a:	f7ff fefb 	bl	8003244 <HAL_I2C_ErrorCallback>
 800344e:	e7a1      	b.n	8003394 <I2C_ITError+0x8c>
 8003450:	08003249 	.word	0x08003249
 8003454:	ffff0000 	.word	0xffff0000

08003458 <HAL_I2C_EV_IRQHandler>:
 8003458:	b5f0      	push	{r4, r5, r6, r7, lr}
 800345a:	4604      	mov	r4, r0
 800345c:	6803      	ldr	r3, [r0, #0]
 800345e:	b08f      	sub	sp, #60	@ 0x3c
 8003460:	685a      	ldr	r2, [r3, #4]
 8003462:	6ac6      	ldr	r6, [r0, #44]	@ 0x2c
 8003464:	f890 003e 	ldrb.w	r0, [r0, #62]	@ 0x3e
 8003468:	f894 103d 	ldrb.w	r1, [r4, #61]	@ 0x3d
 800346c:	2810      	cmp	r0, #16
 800346e:	b2c5      	uxtb	r5, r0
 8003470:	b2c9      	uxtb	r1, r1
 8003472:	d002      	beq.n	800347a <HAL_I2C_EV_IRQHandler+0x22>
 8003474:	2d40      	cmp	r5, #64	@ 0x40
 8003476:	f040 82e5 	bne.w	8003a44 <HAL_I2C_EV_IRQHandler+0x5ec>
 800347a:	699f      	ldr	r7, [r3, #24]
 800347c:	6958      	ldr	r0, [r3, #20]
 800347e:	f010 0f01 	tst.w	r0, #1
 8003482:	d107      	bne.n	8003494 <HAL_I2C_EV_IRQHandler+0x3c>
 8003484:	f5b6 0f2a 	cmp.w	r6, #11141120	@ 0xaa0000
 8003488:	d002      	beq.n	8003490 <HAL_I2C_EV_IRQHandler+0x38>
 800348a:	f1b6 4f2a 	cmp.w	r6, #2852126720	@ 0xaa000000
 800348e:	d151      	bne.n	8003534 <HAL_I2C_EV_IRQHandler+0xdc>
 8003490:	b00f      	add	sp, #60	@ 0x3c
 8003492:	bdf0      	pop	{r4, r5, r6, r7, pc}
 8003494:	0596      	lsls	r6, r2, #22
 8003496:	d54d      	bpl.n	8003534 <HAL_I2C_EV_IRQHandler+0xdc>
 8003498:	6ae2      	ldr	r2, [r4, #44]	@ 0x2c
 800349a:	f5b2 0f2a 	cmp.w	r2, #11141120	@ 0xaa0000
 800349e:	d10c      	bne.n	80034ba <HAL_I2C_EV_IRQHandler+0x62>
 80034a0:	2201      	movs	r2, #1
 80034a2:	62e2      	str	r2, [r4, #44]	@ 0x2c
 80034a4:	f894 203e 	ldrb.w	r2, [r4, #62]	@ 0x3e
 80034a8:	2a40      	cmp	r2, #64	@ 0x40
 80034aa:	d111      	bne.n	80034d0 <HAL_I2C_EV_IRQHandler+0x78>
 80034ac:	6d22      	ldr	r2, [r4, #80]	@ 0x50
 80034ae:	b952      	cbnz	r2, 80034c6 <HAL_I2C_EV_IRQHandler+0x6e>
 80034b0:	6c62      	ldr	r2, [r4, #68]	@ 0x44
 80034b2:	f002 02fe 	and.w	r2, r2, #254	@ 0xfe
 80034b6:	611a      	str	r2, [r3, #16]
 80034b8:	e7ea      	b.n	8003490 <HAL_I2C_EV_IRQHandler+0x38>
 80034ba:	6ae2      	ldr	r2, [r4, #44]	@ 0x2c
 80034bc:	f1b2 4f2a 	cmp.w	r2, #2852126720	@ 0xaa000000
 80034c0:	d1f0      	bne.n	80034a4 <HAL_I2C_EV_IRQHandler+0x4c>
 80034c2:	2208      	movs	r2, #8
 80034c4:	e7ed      	b.n	80034a2 <HAL_I2C_EV_IRQHandler+0x4a>
 80034c6:	6c62      	ldr	r2, [r4, #68]	@ 0x44
 80034c8:	f042 0201 	orr.w	r2, r2, #1
 80034cc:	b2d2      	uxtb	r2, r2
 80034ce:	e7f2      	b.n	80034b6 <HAL_I2C_EV_IRQHandler+0x5e>
 80034d0:	6922      	ldr	r2, [r4, #16]
 80034d2:	f5b2 4f80 	cmp.w	r2, #16384	@ 0x4000
 80034d6:	d11a      	bne.n	800350e <HAL_I2C_EV_IRQHandler+0xb6>
 80034d8:	f894 203d 	ldrb.w	r2, [r4, #61]	@ 0x3d
 80034dc:	2a21      	cmp	r2, #33	@ 0x21
 80034de:	6c62      	ldr	r2, [r4, #68]	@ 0x44
 80034e0:	d111      	bne.n	8003506 <HAL_I2C_EV_IRQHandler+0xae>
 80034e2:	f002 02fe 	and.w	r2, r2, #254	@ 0xfe
 80034e6:	611a      	str	r2, [r3, #16]
 80034e8:	6b62      	ldr	r2, [r4, #52]	@ 0x34
 80034ea:	b10a      	cbz	r2, 80034f0 <HAL_I2C_EV_IRQHandler+0x98>
 80034ec:	6a92      	ldr	r2, [r2, #40]	@ 0x28
 80034ee:	b92a      	cbnz	r2, 80034fc <HAL_I2C_EV_IRQHandler+0xa4>
 80034f0:	6ba2      	ldr	r2, [r4, #56]	@ 0x38
 80034f2:	2a00      	cmp	r2, #0
 80034f4:	d0cc      	beq.n	8003490 <HAL_I2C_EV_IRQHandler+0x38>
 80034f6:	6a92      	ldr	r2, [r2, #40]	@ 0x28
 80034f8:	2a00      	cmp	r2, #0
 80034fa:	d0c9      	beq.n	8003490 <HAL_I2C_EV_IRQHandler+0x38>
 80034fc:	685a      	ldr	r2, [r3, #4]
 80034fe:	f442 6200 	orr.w	r2, r2, #2048	@ 0x800
 8003502:	605a      	str	r2, [r3, #4]
 8003504:	e7c4      	b.n	8003490 <HAL_I2C_EV_IRQHandler+0x38>
 8003506:	f042 0201 	orr.w	r2, r2, #1
 800350a:	b2d2      	uxtb	r2, r2
 800350c:	e7eb      	b.n	80034e6 <HAL_I2C_EV_IRQHandler+0x8e>
 800350e:	6d22      	ldr	r2, [r4, #80]	@ 0x50
 8003510:	b932      	cbnz	r2, 8003520 <HAL_I2C_EV_IRQHandler+0xc8>
 8003512:	6c62      	ldr	r2, [r4, #68]	@ 0x44
 8003514:	11d2      	asrs	r2, r2, #7
 8003516:	f002 0206 	and.w	r2, r2, #6
 800351a:	f042 02f0 	orr.w	r2, r2, #240	@ 0xf0
 800351e:	e7ca      	b.n	80034b6 <HAL_I2C_EV_IRQHandler+0x5e>
 8003520:	6d22      	ldr	r2, [r4, #80]	@ 0x50
 8003522:	2a01      	cmp	r2, #1
 8003524:	d1b4      	bne.n	8003490 <HAL_I2C_EV_IRQHandler+0x38>
 8003526:	6c62      	ldr	r2, [r4, #68]	@ 0x44
 8003528:	11d2      	asrs	r2, r2, #7
 800352a:	f002 0206 	and.w	r2, r2, #6
 800352e:	f042 02f1 	orr.w	r2, r2, #241	@ 0xf1
 8003532:	e7c0      	b.n	80034b6 <HAL_I2C_EV_IRQHandler+0x5e>
 8003534:	0706      	lsls	r6, r0, #28
 8003536:	d503      	bpl.n	8003540 <HAL_I2C_EV_IRQHandler+0xe8>
 8003538:	0596      	lsls	r6, r2, #22
 800353a:	d501      	bpl.n	8003540 <HAL_I2C_EV_IRQHandler+0xe8>
 800353c:	6c62      	ldr	r2, [r4, #68]	@ 0x44
 800353e:	e7e4      	b.n	800350a <HAL_I2C_EV_IRQHandler+0xb2>
 8003540:	0786      	lsls	r6, r0, #30
 8003542:	f140 80f0 	bpl.w	8003726 <HAL_I2C_EV_IRQHandler+0x2ce>
 8003546:	0596      	lsls	r6, r2, #22
 8003548:	f140 80ed 	bpl.w	8003726 <HAL_I2C_EV_IRQHandler+0x2ce>
 800354c:	f894 103e 	ldrb.w	r1, [r4, #62]	@ 0x3e
 8003550:	6ae2      	ldr	r2, [r4, #44]	@ 0x2c
 8003552:	6b25      	ldr	r5, [r4, #48]	@ 0x30
 8003554:	f894 003d 	ldrb.w	r0, [r4, #61]	@ 0x3d
 8003558:	b2c9      	uxtb	r1, r1
 800355a:	2822      	cmp	r0, #34	@ 0x22
 800355c:	f040 80db 	bne.w	8003716 <HAL_I2C_EV_IRQHandler+0x2be>
 8003560:	6d20      	ldr	r0, [r4, #80]	@ 0x50
 8003562:	b940      	cbnz	r0, 8003576 <HAL_I2C_EV_IRQHandler+0x11e>
 8003564:	2940      	cmp	r1, #64	@ 0x40
 8003566:	d106      	bne.n	8003576 <HAL_I2C_EV_IRQHandler+0x11e>
 8003568:	9000      	str	r0, [sp, #0]
 800356a:	695a      	ldr	r2, [r3, #20]
 800356c:	9200      	str	r2, [sp, #0]
 800356e:	699b      	ldr	r3, [r3, #24]
 8003570:	9300      	str	r3, [sp, #0]
 8003572:	9b00      	ldr	r3, [sp, #0]
 8003574:	e78c      	b.n	8003490 <HAL_I2C_EV_IRQHandler+0x38>
 8003576:	6d21      	ldr	r1, [r4, #80]	@ 0x50
 8003578:	b989      	cbnz	r1, 800359e <HAL_I2C_EV_IRQHandler+0x146>
 800357a:	6920      	ldr	r0, [r4, #16]
 800357c:	f5b0 4f40 	cmp.w	r0, #49152	@ 0xc000
 8003580:	d10d      	bne.n	800359e <HAL_I2C_EV_IRQHandler+0x146>
 8003582:	9101      	str	r1, [sp, #4]
 8003584:	695a      	ldr	r2, [r3, #20]
 8003586:	9201      	str	r2, [sp, #4]
 8003588:	699a      	ldr	r2, [r3, #24]
 800358a:	9201      	str	r2, [sp, #4]
 800358c:	9a01      	ldr	r2, [sp, #4]
 800358e:	681a      	ldr	r2, [r3, #0]
 8003590:	f442 7280 	orr.w	r2, r2, #256	@ 0x100
 8003594:	601a      	str	r2, [r3, #0]
 8003596:	6d23      	ldr	r3, [r4, #80]	@ 0x50
 8003598:	3301      	adds	r3, #1
 800359a:	6523      	str	r3, [r4, #80]	@ 0x50
 800359c:	e778      	b.n	8003490 <HAL_I2C_EV_IRQHandler+0x38>
 800359e:	8d61      	ldrh	r1, [r4, #42]	@ 0x2a
 80035a0:	b289      	uxth	r1, r1
 80035a2:	b951      	cbnz	r1, 80035ba <HAL_I2C_EV_IRQHandler+0x162>
 80035a4:	9102      	str	r1, [sp, #8]
 80035a6:	695a      	ldr	r2, [r3, #20]
 80035a8:	9202      	str	r2, [sp, #8]
 80035aa:	699a      	ldr	r2, [r3, #24]
 80035ac:	9202      	str	r2, [sp, #8]
 80035ae:	9a02      	ldr	r2, [sp, #8]
 80035b0:	681a      	ldr	r2, [r3, #0]
 80035b2:	f442 7200 	orr.w	r2, r2, #512	@ 0x200
 80035b6:	601a      	str	r2, [r3, #0]
 80035b8:	e019      	b.n	80035ee <HAL_I2C_EV_IRQHandler+0x196>
 80035ba:	8d61      	ldrh	r1, [r4, #42]	@ 0x2a
 80035bc:	b289      	uxth	r1, r1
 80035be:	2901      	cmp	r1, #1
 80035c0:	d149      	bne.n	8003656 <HAL_I2C_EV_IRQHandler+0x1fe>
 80035c2:	f512 3f80 	cmn.w	r2, #65536	@ 0x10000
 80035c6:	d11b      	bne.n	8003600 <HAL_I2C_EV_IRQHandler+0x1a8>
 80035c8:	681a      	ldr	r2, [r3, #0]
 80035ca:	f422 6280 	bic.w	r2, r2, #1024	@ 0x400
 80035ce:	601a      	str	r2, [r3, #0]
 80035d0:	685a      	ldr	r2, [r3, #4]
 80035d2:	f412 6200 	ands.w	r2, r2, #2048	@ 0x800
 80035d6:	d00c      	beq.n	80035f2 <HAL_I2C_EV_IRQHandler+0x19a>
 80035d8:	681a      	ldr	r2, [r3, #0]
 80035da:	f422 6280 	bic.w	r2, r2, #1024	@ 0x400
 80035de:	601a      	str	r2, [r3, #0]
 80035e0:	2200      	movs	r2, #0
 80035e2:	9203      	str	r2, [sp, #12]
 80035e4:	695a      	ldr	r2, [r3, #20]
 80035e6:	9203      	str	r2, [sp, #12]
 80035e8:	699b      	ldr	r3, [r3, #24]
 80035ea:	9303      	str	r3, [sp, #12]
 80035ec:	9b03      	ldr	r3, [sp, #12]
 80035ee:	2300      	movs	r3, #0
 80035f0:	e7d3      	b.n	800359a <HAL_I2C_EV_IRQHandler+0x142>
 80035f2:	9204      	str	r2, [sp, #16]
 80035f4:	695a      	ldr	r2, [r3, #20]
 80035f6:	9204      	str	r2, [sp, #16]
 80035f8:	699a      	ldr	r2, [r3, #24]
 80035fa:	9204      	str	r2, [sp, #16]
 80035fc:	9a04      	ldr	r2, [sp, #16]
 80035fe:	e7d7      	b.n	80035b0 <HAL_I2C_EV_IRQHandler+0x158>
 8003600:	2a08      	cmp	r2, #8
 8003602:	d01c      	beq.n	800363e <HAL_I2C_EV_IRQHandler+0x1e6>
 8003604:	2a20      	cmp	r2, #32
 8003606:	d01a      	beq.n	800363e <HAL_I2C_EV_IRQHandler+0x1e6>
 8003608:	2d12      	cmp	r5, #18
 800360a:	d10d      	bne.n	8003628 <HAL_I2C_EV_IRQHandler+0x1d0>
 800360c:	2a01      	cmp	r2, #1
 800360e:	d116      	bne.n	800363e <HAL_I2C_EV_IRQHandler+0x1e6>
 8003610:	681a      	ldr	r2, [r3, #0]
 8003612:	f422 6280 	bic.w	r2, r2, #1024	@ 0x400
 8003616:	601a      	str	r2, [r3, #0]
 8003618:	2200      	movs	r2, #0
 800361a:	9205      	str	r2, [sp, #20]
 800361c:	695a      	ldr	r2, [r3, #20]
 800361e:	9205      	str	r2, [sp, #20]
 8003620:	699b      	ldr	r3, [r3, #24]
 8003622:	9305      	str	r3, [sp, #20]
 8003624:	9b05      	ldr	r3, [sp, #20]
 8003626:	e7e2      	b.n	80035ee <HAL_I2C_EV_IRQHandler+0x196>
 8003628:	2a10      	cmp	r2, #16
 800362a:	d8f1      	bhi.n	8003610 <HAL_I2C_EV_IRQHandler+0x1b8>
 800362c:	4986      	ldr	r1, [pc, #536]	@ (8003848 <HAL_I2C_EV_IRQHandler+0x3f0>)
 800362e:	fa41 f202 	asr.w	r2, r1, r2
 8003632:	07d7      	lsls	r7, r2, #31
 8003634:	d4ec      	bmi.n	8003610 <HAL_I2C_EV_IRQHandler+0x1b8>
 8003636:	681a      	ldr	r2, [r3, #0]
 8003638:	f442 6280 	orr.w	r2, r2, #1024	@ 0x400
 800363c:	e7eb      	b.n	8003616 <HAL_I2C_EV_IRQHandler+0x1be>
 800363e:	681a      	ldr	r2, [r3, #0]
 8003640:	f422 6280 	bic.w	r2, r2, #1024	@ 0x400
 8003644:	601a      	str	r2, [r3, #0]
 8003646:	2200      	movs	r2, #0
 8003648:	9206      	str	r2, [sp, #24]
 800364a:	695a      	ldr	r2, [r3, #20]
 800364c:	9206      	str	r2, [sp, #24]
 800364e:	699a      	ldr	r2, [r3, #24]
 8003650:	9206      	str	r2, [sp, #24]
 8003652:	9a06      	ldr	r2, [sp, #24]
 8003654:	e7ac      	b.n	80035b0 <HAL_I2C_EV_IRQHandler+0x158>
 8003656:	8d61      	ldrh	r1, [r4, #42]	@ 0x2a
 8003658:	b289      	uxth	r1, r1
 800365a:	2902      	cmp	r1, #2
 800365c:	d138      	bne.n	80036d0 <HAL_I2C_EV_IRQHandler+0x278>
 800365e:	2a10      	cmp	r2, #16
 8003660:	d803      	bhi.n	800366a <HAL_I2C_EV_IRQHandler+0x212>
 8003662:	497a      	ldr	r1, [pc, #488]	@ (800384c <HAL_I2C_EV_IRQHandler+0x3f4>)
 8003664:	40d1      	lsrs	r1, r2
 8003666:	07ce      	lsls	r6, r1, #31
 8003668:	d418      	bmi.n	800369c <HAL_I2C_EV_IRQHandler+0x244>
 800366a:	6819      	ldr	r1, [r3, #0]
 800366c:	f441 6100 	orr.w	r1, r1, #2048	@ 0x800
 8003670:	6019      	str	r1, [r3, #0]
 8003672:	2100      	movs	r1, #0
 8003674:	9107      	str	r1, [sp, #28]
 8003676:	6959      	ldr	r1, [r3, #20]
 8003678:	9107      	str	r1, [sp, #28]
 800367a:	6999      	ldr	r1, [r3, #24]
 800367c:	9107      	str	r1, [sp, #28]
 800367e:	9907      	ldr	r1, [sp, #28]
 8003680:	6819      	ldr	r1, [r3, #0]
 8003682:	f421 6180 	bic.w	r1, r1, #1024	@ 0x400
 8003686:	6019      	str	r1, [r3, #0]
 8003688:	6859      	ldr	r1, [r3, #4]
 800368a:	050d      	lsls	r5, r1, #20
 800368c:	d5af      	bpl.n	80035ee <HAL_I2C_EV_IRQHandler+0x196>
 800368e:	2a20      	cmp	r2, #32
 8003690:	d81b      	bhi.n	80036ca <HAL_I2C_EV_IRQHandler+0x272>
 8003692:	2a07      	cmp	r2, #7
 8003694:	d80e      	bhi.n	80036b4 <HAL_I2C_EV_IRQHandler+0x25c>
 8003696:	2a01      	cmp	r2, #1
 8003698:	d1a9      	bne.n	80035ee <HAL_I2C_EV_IRQHandler+0x196>
 800369a:	e011      	b.n	80036c0 <HAL_I2C_EV_IRQHandler+0x268>
 800369c:	6819      	ldr	r1, [r3, #0]
 800369e:	f441 6180 	orr.w	r1, r1, #1024	@ 0x400
 80036a2:	6019      	str	r1, [r3, #0]
 80036a4:	2100      	movs	r1, #0
 80036a6:	9108      	str	r1, [sp, #32]
 80036a8:	6959      	ldr	r1, [r3, #20]
 80036aa:	9108      	str	r1, [sp, #32]
 80036ac:	6999      	ldr	r1, [r3, #24]
 80036ae:	9108      	str	r1, [sp, #32]
 80036b0:	9908      	ldr	r1, [sp, #32]
 80036b2:	e7e9      	b.n	8003688 <HAL_I2C_EV_IRQHandler+0x230>
 80036b4:	f1a2 0108 	sub.w	r1, r2, #8
 80036b8:	4a65      	ldr	r2, [pc, #404]	@ (8003850 <HAL_I2C_EV_IRQHandler+0x3f8>)
 80036ba:	40ca      	lsrs	r2, r1
 80036bc:	07d0      	lsls	r0, r2, #31
 80036be:	d596      	bpl.n	80035ee <HAL_I2C_EV_IRQHandler+0x196>
 80036c0:	685a      	ldr	r2, [r3, #4]
 80036c2:	f442 5280 	orr.w	r2, r2, #4096	@ 0x1000
 80036c6:	605a      	str	r2, [r3, #4]
 80036c8:	e791      	b.n	80035ee <HAL_I2C_EV_IRQHandler+0x196>
 80036ca:	f512 3f80 	cmn.w	r2, #65536	@ 0x10000
 80036ce:	e7e3      	b.n	8003698 <HAL_I2C_EV_IRQHandler+0x240>
 80036d0:	6819      	ldr	r1, [r3, #0]
 80036d2:	f441 6180 	orr.w	r1, r1, #1024	@ 0x400
 80036d6:	6019      	str	r1, [r3, #0]
 80036d8:	6859      	ldr	r1, [r3, #4]
 80036da:	0509      	lsls	r1, r1, #20
 80036dc:	d510      	bpl.n	8003700 <HAL_I2C_EV_IRQHandler+0x2a8>
 80036de:	2a20      	cmp	r2, #32
 80036e0:	d816      	bhi.n	8003710 <HAL_I2C_EV_IRQHandler+0x2b8>
 80036e2:	2a07      	cmp	r2, #7
 80036e4:	d806      	bhi.n	80036f4 <HAL_I2C_EV_IRQHandler+0x29c>
 80036e6:	2a01      	cmp	r2, #1
 80036e8:	d10a      	bne.n	8003700 <HAL_I2C_EV_IRQHandler+0x2a8>
 80036ea:	685a      	ldr	r2, [r3, #4]
 80036ec:	f442 5280 	orr.w	r2, r2, #4096	@ 0x1000
 80036f0:	605a      	str	r2, [r3, #4]
 80036f2:	e005      	b.n	8003700 <HAL_I2C_EV_IRQHandler+0x2a8>
 80036f4:	f1a2 0108 	sub.w	r1, r2, #8
 80036f8:	4a55      	ldr	r2, [pc, #340]	@ (8003850 <HAL_I2C_EV_IRQHandler+0x3f8>)
 80036fa:	40ca      	lsrs	r2, r1
 80036fc:	07d2      	lsls	r2, r2, #31
 80036fe:	d4f4      	bmi.n	80036ea <HAL_I2C_EV_IRQHandler+0x292>
 8003700:	2200      	movs	r2, #0
 8003702:	9209      	str	r2, [sp, #36]	@ 0x24
 8003704:	695a      	ldr	r2, [r3, #20]
 8003706:	9209      	str	r2, [sp, #36]	@ 0x24
 8003708:	699b      	ldr	r3, [r3, #24]
 800370a:	9309      	str	r3, [sp, #36]	@ 0x24
 800370c:	9b09      	ldr	r3, [sp, #36]	@ 0x24
 800370e:	e76e      	b.n	80035ee <HAL_I2C_EV_IRQHandler+0x196>
 8003710:	f512 3f80 	cmn.w	r2, #65536	@ 0x10000
 8003714:	e7e8      	b.n	80036e8 <HAL_I2C_EV_IRQHandler+0x290>
 8003716:	2200      	movs	r2, #0
 8003718:	920a      	str	r2, [sp, #40]	@ 0x28
 800371a:	695a      	ldr	r2, [r3, #20]
 800371c:	920a      	str	r2, [sp, #40]	@ 0x28
 800371e:	699b      	ldr	r3, [r3, #24]
 8003720:	930a      	str	r3, [sp, #40]	@ 0x28
 8003722:	9b0a      	ldr	r3, [sp, #40]	@ 0x28
 8003724:	e6b4      	b.n	8003490 <HAL_I2C_EV_IRQHandler+0x38>
 8003726:	077f      	lsls	r7, r7, #29
 8003728:	f140 8094 	bpl.w	8003854 <HAL_I2C_EV_IRQHandler+0x3fc>
 800372c:	685e      	ldr	r6, [r3, #4]
 800372e:	0536      	lsls	r6, r6, #20
 8003730:	f53f aeae 	bmi.w	8003490 <HAL_I2C_EV_IRQHandler+0x38>
 8003734:	0607      	lsls	r7, r0, #24
 8003736:	f000 0604 	and.w	r6, r0, #4
 800373a:	d53e      	bpl.n	80037ba <HAL_I2C_EV_IRQHandler+0x362>
 800373c:	0550      	lsls	r0, r2, #21
 800373e:	d53c      	bpl.n	80037ba <HAL_I2C_EV_IRQHandler+0x362>
 8003740:	2e00      	cmp	r6, #0
 8003742:	d13d      	bne.n	80037c0 <HAL_I2C_EV_IRQHandler+0x368>
 8003744:	f894 203d 	ldrb.w	r2, [r4, #61]	@ 0x3d
 8003748:	8d25      	ldrh	r5, [r4, #40]	@ 0x28
 800374a:	f894 103e 	ldrb.w	r1, [r4, #62]	@ 0x3e
 800374e:	b2d2      	uxtb	r2, r2
 8003750:	6ae0      	ldr	r0, [r4, #44]	@ 0x2c
 8003752:	b2c9      	uxtb	r1, r1
 8003754:	b9c5      	cbnz	r5, 8003788 <HAL_I2C_EV_IRQHandler+0x330>
 8003756:	2a21      	cmp	r2, #33	@ 0x21
 8003758:	d118      	bne.n	800378c <HAL_I2C_EV_IRQHandler+0x334>
 800375a:	2808      	cmp	r0, #8
 800375c:	d058      	beq.n	8003810 <HAL_I2C_EV_IRQHandler+0x3b8>
 800375e:	2820      	cmp	r0, #32
 8003760:	d056      	beq.n	8003810 <HAL_I2C_EV_IRQHandler+0x3b8>
 8003762:	f510 3f80 	cmn.w	r0, #65536	@ 0x10000
 8003766:	d053      	beq.n	8003810 <HAL_I2C_EV_IRQHandler+0x3b8>
 8003768:	685a      	ldr	r2, [r3, #4]
 800376a:	f422 62e0 	bic.w	r2, r2, #1792	@ 0x700
 800376e:	605a      	str	r2, [r3, #4]
 8003770:	2311      	movs	r3, #17
 8003772:	6323      	str	r3, [r4, #48]	@ 0x30
 8003774:	2300      	movs	r3, #0
 8003776:	f884 303e 	strb.w	r3, [r4, #62]	@ 0x3e
 800377a:	2320      	movs	r3, #32
 800377c:	4620      	mov	r0, r4
 800377e:	f884 303d 	strb.w	r3, [r4, #61]	@ 0x3d
 8003782:	f7ff fcff 	bl	8003184 <HAL_I2C_MasterTxCpltCallback>
 8003786:	e683      	b.n	8003490 <HAL_I2C_EV_IRQHandler+0x38>
 8003788:	2a21      	cmp	r2, #33	@ 0x21
 800378a:	d005      	beq.n	8003798 <HAL_I2C_EV_IRQHandler+0x340>
 800378c:	2940      	cmp	r1, #64	@ 0x40
 800378e:	f47f ae7f 	bne.w	8003490 <HAL_I2C_EV_IRQHandler+0x38>
 8003792:	2a22      	cmp	r2, #34	@ 0x22
 8003794:	f47f ae7c 	bne.w	8003490 <HAL_I2C_EV_IRQHandler+0x38>
 8003798:	8d62      	ldrh	r2, [r4, #42]	@ 0x2a
 800379a:	b292      	uxth	r2, r2
 800379c:	b91a      	cbnz	r2, 80037a6 <HAL_I2C_EV_IRQHandler+0x34e>
 800379e:	685a      	ldr	r2, [r3, #4]
 80037a0:	f422 6280 	bic.w	r2, r2, #1024	@ 0x400
 80037a4:	e6ad      	b.n	8003502 <HAL_I2C_EV_IRQHandler+0xaa>
 80037a6:	f894 203e 	ldrb.w	r2, [r4, #62]	@ 0x3e
 80037aa:	2a40      	cmp	r2, #64	@ 0x40
 80037ac:	d116      	bne.n	80037dc <HAL_I2C_EV_IRQHandler+0x384>
 80037ae:	4620      	mov	r0, r4
 80037b0:	b00f      	add	sp, #60	@ 0x3c
 80037b2:	e8bd 40f0 	ldmia.w	sp!, {r4, r5, r6, r7, lr}
 80037b6:	f7ff bcec 	b.w	8003192 <I2C_MemoryTransmit_TXE_BTF>
 80037ba:	2e00      	cmp	r6, #0
 80037bc:	f43f ae68 	beq.w	8003490 <HAL_I2C_EV_IRQHandler+0x38>
 80037c0:	0597      	lsls	r7, r2, #22
 80037c2:	f57f ae65 	bpl.w	8003490 <HAL_I2C_EV_IRQHandler+0x38>
 80037c6:	2921      	cmp	r1, #33	@ 0x21
 80037c8:	d139      	bne.n	800383e <HAL_I2C_EV_IRQHandler+0x3e6>
 80037ca:	6ae1      	ldr	r1, [r4, #44]	@ 0x2c
 80037cc:	f894 203d 	ldrb.w	r2, [r4, #61]	@ 0x3d
 80037d0:	2a21      	cmp	r2, #33	@ 0x21
 80037d2:	f47f ae5d 	bne.w	8003490 <HAL_I2C_EV_IRQHandler+0x38>
 80037d6:	8d62      	ldrh	r2, [r4, #42]	@ 0x2a
 80037d8:	b292      	uxth	r2, r2
 80037da:	b14a      	cbz	r2, 80037f0 <HAL_I2C_EV_IRQHandler+0x398>
 80037dc:	6a62      	ldr	r2, [r4, #36]	@ 0x24
 80037de:	f812 1b01 	ldrb.w	r1, [r2], #1
 80037e2:	6119      	str	r1, [r3, #16]
 80037e4:	6262      	str	r2, [r4, #36]	@ 0x24
 80037e6:	8d63      	ldrh	r3, [r4, #42]	@ 0x2a
 80037e8:	3b01      	subs	r3, #1
 80037ea:	b29b      	uxth	r3, r3
 80037ec:	8563      	strh	r3, [r4, #42]	@ 0x2a
 80037ee:	e64f      	b.n	8003490 <HAL_I2C_EV_IRQHandler+0x38>
 80037f0:	2908      	cmp	r1, #8
 80037f2:	d00d      	beq.n	8003810 <HAL_I2C_EV_IRQHandler+0x3b8>
 80037f4:	2920      	cmp	r1, #32
 80037f6:	d00b      	beq.n	8003810 <HAL_I2C_EV_IRQHandler+0x3b8>
 80037f8:	f511 3f80 	cmn.w	r1, #65536	@ 0x10000
 80037fc:	d008      	beq.n	8003810 <HAL_I2C_EV_IRQHandler+0x3b8>
 80037fe:	6859      	ldr	r1, [r3, #4]
 8003800:	f421 61e0 	bic.w	r1, r1, #1792	@ 0x700
 8003804:	6059      	str	r1, [r3, #4]
 8003806:	2311      	movs	r3, #17
 8003808:	6323      	str	r3, [r4, #48]	@ 0x30
 800380a:	f884 203e 	strb.w	r2, [r4, #62]	@ 0x3e
 800380e:	e7b4      	b.n	800377a <HAL_I2C_EV_IRQHandler+0x322>
 8003810:	685a      	ldr	r2, [r3, #4]
 8003812:	4620      	mov	r0, r4
 8003814:	f422 62e0 	bic.w	r2, r2, #1792	@ 0x700
 8003818:	605a      	str	r2, [r3, #4]
 800381a:	681a      	ldr	r2, [r3, #0]
 800381c:	f442 7200 	orr.w	r2, r2, #512	@ 0x200
 8003820:	601a      	str	r2, [r3, #0]
 8003822:	2300      	movs	r3, #0
 8003824:	2220      	movs	r2, #32
 8003826:	6323      	str	r3, [r4, #48]	@ 0x30
 8003828:	f884 203d 	strb.w	r2, [r4, #61]	@ 0x3d
 800382c:	f894 203e 	ldrb.w	r2, [r4, #62]	@ 0x3e
 8003830:	f884 303e 	strb.w	r3, [r4, #62]	@ 0x3e
 8003834:	2a40      	cmp	r2, #64	@ 0x40
 8003836:	d1a4      	bne.n	8003782 <HAL_I2C_EV_IRQHandler+0x32a>
 8003838:	f7ff fcaa 	bl	8003190 <HAL_I2C_MemTxCpltCallback>
 800383c:	e628      	b.n	8003490 <HAL_I2C_EV_IRQHandler+0x38>
 800383e:	2d40      	cmp	r5, #64	@ 0x40
 8003840:	f47f ae26 	bne.w	8003490 <HAL_I2C_EV_IRQHandler+0x38>
 8003844:	e7b3      	b.n	80037ae <HAL_I2C_EV_IRQHandler+0x356>
 8003846:	bf00      	nop
 8003848:	fffeffeb 	.word	0xfffeffeb
 800384c:	00010014 	.word	0x00010014
 8003850:	01000101 	.word	0x01000101
 8003854:	6859      	ldr	r1, [r3, #4]
 8003856:	050e      	lsls	r6, r1, #20
 8003858:	f53f ae1a 	bmi.w	8003490 <HAL_I2C_EV_IRQHandler+0x38>
 800385c:	0645      	lsls	r5, r0, #25
 800385e:	f000 0104 	and.w	r1, r0, #4
 8003862:	f140 8086 	bpl.w	8003972 <HAL_I2C_EV_IRQHandler+0x51a>
 8003866:	0550      	lsls	r0, r2, #21
 8003868:	f140 8083 	bpl.w	8003972 <HAL_I2C_EV_IRQHandler+0x51a>
 800386c:	2900      	cmp	r1, #0
 800386e:	f040 8083 	bne.w	8003978 <HAL_I2C_EV_IRQHandler+0x520>
 8003872:	f894 203d 	ldrb.w	r2, [r4, #61]	@ 0x3d
 8003876:	2a22      	cmp	r2, #34	@ 0x22
 8003878:	f47f ae0a 	bne.w	8003490 <HAL_I2C_EV_IRQHandler+0x38>
 800387c:	6ae0      	ldr	r0, [r4, #44]	@ 0x2c
 800387e:	8d62      	ldrh	r2, [r4, #42]	@ 0x2a
 8003880:	b292      	uxth	r2, r2
 8003882:	2a03      	cmp	r2, #3
 8003884:	d914      	bls.n	80038b0 <HAL_I2C_EV_IRQHandler+0x458>
 8003886:	691a      	ldr	r2, [r3, #16]
 8003888:	6a63      	ldr	r3, [r4, #36]	@ 0x24
 800388a:	701a      	strb	r2, [r3, #0]
 800388c:	6a63      	ldr	r3, [r4, #36]	@ 0x24
 800388e:	3301      	adds	r3, #1
 8003890:	6263      	str	r3, [r4, #36]	@ 0x24
 8003892:	8d63      	ldrh	r3, [r4, #42]	@ 0x2a
 8003894:	3b01      	subs	r3, #1
 8003896:	b29b      	uxth	r3, r3
 8003898:	8563      	strh	r3, [r4, #42]	@ 0x2a
 800389a:	8d63      	ldrh	r3, [r4, #42]	@ 0x2a
 800389c:	b29b      	uxth	r3, r3
 800389e:	2b03      	cmp	r3, #3
 80038a0:	f47f adf6 	bne.w	8003490 <HAL_I2C_EV_IRQHandler+0x38>
 80038a4:	6822      	ldr	r2, [r4, #0]
 80038a6:	6853      	ldr	r3, [r2, #4]
 80038a8:	f423 6380 	bic.w	r3, r3, #1024	@ 0x400
 80038ac:	6053      	str	r3, [r2, #4]
 80038ae:	e5ef      	b.n	8003490 <HAL_I2C_EV_IRQHandler+0x38>
 80038b0:	6ae5      	ldr	r5, [r4, #44]	@ 0x2c
 80038b2:	2d02      	cmp	r5, #2
 80038b4:	f43f af73 	beq.w	800379e <HAL_I2C_EV_IRQHandler+0x346>
 80038b8:	2a01      	cmp	r2, #1
 80038ba:	f63f af70 	bhi.w	800379e <HAL_I2C_EV_IRQHandler+0x346>
 80038be:	910b      	str	r1, [sp, #44]	@ 0x2c
 80038c0:	f246 11a8 	movw	r1, #25000	@ 0x61a8
 80038c4:	4a78      	ldr	r2, [pc, #480]	@ (8003aa8 <HAL_I2C_EV_IRQHandler+0x650>)
 80038c6:	6812      	ldr	r2, [r2, #0]
 80038c8:	fbb2 f2f1 	udiv	r2, r2, r1
 80038cc:	eb02 0282 	add.w	r2, r2, r2, lsl #2
 80038d0:	920b      	str	r2, [sp, #44]	@ 0x2c
 80038d2:	9a0b      	ldr	r2, [sp, #44]	@ 0x2c
 80038d4:	3a01      	subs	r2, #1
 80038d6:	920b      	str	r2, [sp, #44]	@ 0x2c
 80038d8:	990b      	ldr	r1, [sp, #44]	@ 0x2c
 80038da:	b9d1      	cbnz	r1, 8003912 <HAL_I2C_EV_IRQHandler+0x4ba>
 80038dc:	6c22      	ldr	r2, [r4, #64]	@ 0x40
 80038de:	4620      	mov	r0, r4
 80038e0:	f042 0220 	orr.w	r2, r2, #32
 80038e4:	6422      	str	r2, [r4, #64]	@ 0x40
 80038e6:	685a      	ldr	r2, [r3, #4]
 80038e8:	f422 62e0 	bic.w	r2, r2, #1792	@ 0x700
 80038ec:	605a      	str	r2, [r3, #4]
 80038ee:	691a      	ldr	r2, [r3, #16]
 80038f0:	6a63      	ldr	r3, [r4, #36]	@ 0x24
 80038f2:	701a      	strb	r2, [r3, #0]
 80038f4:	6a63      	ldr	r3, [r4, #36]	@ 0x24
 80038f6:	3301      	adds	r3, #1
 80038f8:	6263      	str	r3, [r4, #36]	@ 0x24
 80038fa:	8d63      	ldrh	r3, [r4, #42]	@ 0x2a
 80038fc:	3b01      	subs	r3, #1
 80038fe:	b29b      	uxth	r3, r3
 8003900:	8563      	strh	r3, [r4, #42]	@ 0x2a
 8003902:	2320      	movs	r3, #32
 8003904:	f884 303d 	strb.w	r3, [r4, #61]	@ 0x3d
 8003908:	f884 103e 	strb.w	r1, [r4, #62]	@ 0x3e
 800390c:	f7ff fc9a 	bl	8003244 <HAL_I2C_ErrorCallback>
 8003910:	e5be      	b.n	8003490 <HAL_I2C_EV_IRQHandler+0x38>
 8003912:	681a      	ldr	r2, [r3, #0]
 8003914:	f412 7200 	ands.w	r2, r2, #512	@ 0x200
 8003918:	d1db      	bne.n	80038d2 <HAL_I2C_EV_IRQHandler+0x47a>
 800391a:	6819      	ldr	r1, [r3, #0]
 800391c:	f421 6180 	bic.w	r1, r1, #1024	@ 0x400
 8003920:	6019      	str	r1, [r3, #0]
 8003922:	6859      	ldr	r1, [r3, #4]
 8003924:	f421 61e0 	bic.w	r1, r1, #1792	@ 0x700
 8003928:	6059      	str	r1, [r3, #4]
 800392a:	6919      	ldr	r1, [r3, #16]
 800392c:	6a63      	ldr	r3, [r4, #36]	@ 0x24
 800392e:	7019      	strb	r1, [r3, #0]
 8003930:	6a63      	ldr	r3, [r4, #36]	@ 0x24
 8003932:	3301      	adds	r3, #1
 8003934:	6263      	str	r3, [r4, #36]	@ 0x24
 8003936:	8d63      	ldrh	r3, [r4, #42]	@ 0x2a
 8003938:	3b01      	subs	r3, #1
 800393a:	b29b      	uxth	r3, r3
 800393c:	8563      	strh	r3, [r4, #42]	@ 0x2a
 800393e:	2320      	movs	r3, #32
 8003940:	f884 303d 	strb.w	r3, [r4, #61]	@ 0x3d
 8003944:	f894 303e 	ldrb.w	r3, [r4, #62]	@ 0x3e
 8003948:	f884 203e 	strb.w	r2, [r4, #62]	@ 0x3e
 800394c:	2b40      	cmp	r3, #64	@ 0x40
 800394e:	d104      	bne.n	800395a <HAL_I2C_EV_IRQHandler+0x502>
 8003950:	6322      	str	r2, [r4, #48]	@ 0x30
 8003952:	4620      	mov	r0, r4
 8003954:	f7ff fc75 	bl	8003242 <HAL_I2C_MemRxCpltCallback>
 8003958:	e59a      	b.n	8003490 <HAL_I2C_EV_IRQHandler+0x38>
 800395a:	2808      	cmp	r0, #8
 800395c:	d001      	beq.n	8003962 <HAL_I2C_EV_IRQHandler+0x50a>
 800395e:	2820      	cmp	r0, #32
 8003960:	d101      	bne.n	8003966 <HAL_I2C_EV_IRQHandler+0x50e>
 8003962:	2300      	movs	r3, #0
 8003964:	e000      	b.n	8003968 <HAL_I2C_EV_IRQHandler+0x510>
 8003966:	2312      	movs	r3, #18
 8003968:	4620      	mov	r0, r4
 800396a:	6323      	str	r3, [r4, #48]	@ 0x30
 800396c:	f7ff fc0b 	bl	8003186 <HAL_I2C_MasterRxCpltCallback>
 8003970:	e58e      	b.n	8003490 <HAL_I2C_EV_IRQHandler+0x38>
 8003972:	2900      	cmp	r1, #0
 8003974:	f43f ad8c 	beq.w	8003490 <HAL_I2C_EV_IRQHandler+0x38>
 8003978:	0592      	lsls	r2, r2, #22
 800397a:	f57f ad89 	bpl.w	8003490 <HAL_I2C_EV_IRQHandler+0x38>
 800397e:	6ae2      	ldr	r2, [r4, #44]	@ 0x2c
 8003980:	8d60      	ldrh	r0, [r4, #42]	@ 0x2a
 8003982:	6a61      	ldr	r1, [r4, #36]	@ 0x24
 8003984:	b280      	uxth	r0, r0
 8003986:	2804      	cmp	r0, #4
 8003988:	d109      	bne.n	800399e <HAL_I2C_EV_IRQHandler+0x546>
 800398a:	685a      	ldr	r2, [r3, #4]
 800398c:	f422 6280 	bic.w	r2, r2, #1024	@ 0x400
 8003990:	605a      	str	r2, [r3, #4]
 8003992:	691b      	ldr	r3, [r3, #16]
 8003994:	700b      	strb	r3, [r1, #0]
 8003996:	6a63      	ldr	r3, [r4, #36]	@ 0x24
 8003998:	3301      	adds	r3, #1
 800399a:	6263      	str	r3, [r4, #36]	@ 0x24
 800399c:	e723      	b.n	80037e6 <HAL_I2C_EV_IRQHandler+0x38e>
 800399e:	8d60      	ldrh	r0, [r4, #42]	@ 0x2a
 80039a0:	b280      	uxth	r0, r0
 80039a2:	2803      	cmp	r0, #3
 80039a4:	d10c      	bne.n	80039c0 <HAL_I2C_EV_IRQHandler+0x568>
 80039a6:	6858      	ldr	r0, [r3, #4]
 80039a8:	2a04      	cmp	r2, #4
 80039aa:	f420 6080 	bic.w	r0, r0, #1024	@ 0x400
 80039ae:	6058      	str	r0, [r3, #4]
 80039b0:	d0ef      	beq.n	8003992 <HAL_I2C_EV_IRQHandler+0x53a>
 80039b2:	2a02      	cmp	r2, #2
 80039b4:	d0ed      	beq.n	8003992 <HAL_I2C_EV_IRQHandler+0x53a>
 80039b6:	681a      	ldr	r2, [r3, #0]
 80039b8:	f422 6280 	bic.w	r2, r2, #1024	@ 0x400
 80039bc:	601a      	str	r2, [r3, #0]
 80039be:	e7e8      	b.n	8003992 <HAL_I2C_EV_IRQHandler+0x53a>
 80039c0:	8d60      	ldrh	r0, [r4, #42]	@ 0x2a
 80039c2:	b280      	uxth	r0, r0
 80039c4:	2802      	cmp	r0, #2
 80039c6:	d1e4      	bne.n	8003992 <HAL_I2C_EV_IRQHandler+0x53a>
 80039c8:	2a04      	cmp	r2, #4
 80039ca:	d033      	beq.n	8003a34 <HAL_I2C_EV_IRQHandler+0x5dc>
 80039cc:	d807      	bhi.n	80039de <HAL_I2C_EV_IRQHandler+0x586>
 80039ce:	2a01      	cmp	r2, #1
 80039d0:	d007      	beq.n	80039e2 <HAL_I2C_EV_IRQHandler+0x58a>
 80039d2:	2a02      	cmp	r2, #2
 80039d4:	d02e      	beq.n	8003a34 <HAL_I2C_EV_IRQHandler+0x5dc>
 80039d6:	6818      	ldr	r0, [r3, #0]
 80039d8:	f440 7000 	orr.w	r0, r0, #512	@ 0x200
 80039dc:	e004      	b.n	80039e8 <HAL_I2C_EV_IRQHandler+0x590>
 80039de:	2a10      	cmp	r2, #16
 80039e0:	d1f9      	bne.n	80039d6 <HAL_I2C_EV_IRQHandler+0x57e>
 80039e2:	6818      	ldr	r0, [r3, #0]
 80039e4:	f420 6080 	bic.w	r0, r0, #1024	@ 0x400
 80039e8:	6018      	str	r0, [r3, #0]
 80039ea:	691b      	ldr	r3, [r3, #16]
 80039ec:	700b      	strb	r3, [r1, #0]
 80039ee:	6a61      	ldr	r1, [r4, #36]	@ 0x24
 80039f0:	1c4b      	adds	r3, r1, #1
 80039f2:	6263      	str	r3, [r4, #36]	@ 0x24
 80039f4:	8d63      	ldrh	r3, [r4, #42]	@ 0x2a
 80039f6:	3b01      	subs	r3, #1
 80039f8:	b29b      	uxth	r3, r3
 80039fa:	8563      	strh	r3, [r4, #42]	@ 0x2a
 80039fc:	6823      	ldr	r3, [r4, #0]
 80039fe:	691b      	ldr	r3, [r3, #16]
 8003a00:	704b      	strb	r3, [r1, #1]
 8003a02:	6a63      	ldr	r3, [r4, #36]	@ 0x24
 8003a04:	6821      	ldr	r1, [r4, #0]
 8003a06:	3301      	adds	r3, #1
 8003a08:	6263      	str	r3, [r4, #36]	@ 0x24
 8003a0a:	8d63      	ldrh	r3, [r4, #42]	@ 0x2a
 8003a0c:	3b01      	subs	r3, #1
 8003a0e:	b29b      	uxth	r3, r3
 8003a10:	8563      	strh	r3, [r4, #42]	@ 0x2a
 8003a12:	684b      	ldr	r3, [r1, #4]
 8003a14:	f423 7340 	bic.w	r3, r3, #768	@ 0x300
 8003a18:	604b      	str	r3, [r1, #4]
 8003a1a:	2320      	movs	r3, #32
 8003a1c:	f884 303d 	strb.w	r3, [r4, #61]	@ 0x3d
 8003a20:	f894 303e 	ldrb.w	r3, [r4, #62]	@ 0x3e
 8003a24:	2b40      	cmp	r3, #64	@ 0x40
 8003a26:	f04f 0300 	mov.w	r3, #0
 8003a2a:	f884 303e 	strb.w	r3, [r4, #62]	@ 0x3e
 8003a2e:	d105      	bne.n	8003a3c <HAL_I2C_EV_IRQHandler+0x5e4>
 8003a30:	6323      	str	r3, [r4, #48]	@ 0x30
 8003a32:	e78e      	b.n	8003952 <HAL_I2C_EV_IRQHandler+0x4fa>
 8003a34:	6818      	ldr	r0, [r3, #0]
 8003a36:	f440 6080 	orr.w	r0, r0, #1024	@ 0x400
 8003a3a:	e7d5      	b.n	80039e8 <HAL_I2C_EV_IRQHandler+0x590>
 8003a3c:	2a08      	cmp	r2, #8
 8003a3e:	d090      	beq.n	8003962 <HAL_I2C_EV_IRQHandler+0x50a>
 8003a40:	2a20      	cmp	r2, #32
 8003a42:	e78d      	b.n	8003960 <HAL_I2C_EV_IRQHandler+0x508>
 8003a44:	6c20      	ldr	r0, [r4, #64]	@ 0x40
 8003a46:	b310      	cbz	r0, 8003a8e <HAL_I2C_EV_IRQHandler+0x636>
 8003a48:	2500      	movs	r5, #0
 8003a4a:	6958      	ldr	r0, [r3, #20]
 8003a4c:	0787      	lsls	r7, r0, #30
 8003a4e:	d52d      	bpl.n	8003aac <HAL_I2C_EV_IRQHandler+0x654>
 8003a50:	0596      	lsls	r6, r2, #22
 8003a52:	d52b      	bpl.n	8003aac <HAL_I2C_EV_IRQHandler+0x654>
 8003a54:	6c22      	ldr	r2, [r4, #64]	@ 0x40
 8003a56:	b102      	cbz	r2, 8003a5a <HAL_I2C_EV_IRQHandler+0x602>
 8003a58:	699d      	ldr	r5, [r3, #24]
 8003a5a:	f894 203d 	ldrb.w	r2, [r4, #61]	@ 0x3d
 8003a5e:	f002 0228 	and.w	r2, r2, #40	@ 0x28
 8003a62:	2a28      	cmp	r2, #40	@ 0x28
 8003a64:	d116      	bne.n	8003a94 <HAL_I2C_EV_IRQHandler+0x63c>
 8003a66:	685a      	ldr	r2, [r3, #4]
 8003a68:	062f      	lsls	r7, r5, #24
 8003a6a:	f422 6280 	bic.w	r2, r2, #1024	@ 0x400
 8003a6e:	605a      	str	r2, [r3, #4]
 8003a70:	f04f 0300 	mov.w	r3, #0
 8003a74:	f085 0104 	eor.w	r1, r5, #4
 8003a78:	4620      	mov	r0, r4
 8003a7a:	bf54      	ite	pl
 8003a7c:	89a2      	ldrhpl	r2, [r4, #12]
 8003a7e:	8b22      	ldrhmi	r2, [r4, #24]
 8003a80:	f3c1 0180 	ubfx	r1, r1, #2, #1
 8003a84:	f884 303c 	strb.w	r3, [r4, #60]	@ 0x3c
 8003a88:	f7ff fb80 	bl	800318c <HAL_I2C_AddrCallback>
 8003a8c:	e500      	b.n	8003490 <HAL_I2C_EV_IRQHandler+0x38>
 8003a8e:	699d      	ldr	r5, [r3, #24]
 8003a90:	6958      	ldr	r0, [r3, #20]
 8003a92:	e7db      	b.n	8003a4c <HAL_I2C_EV_IRQHandler+0x5f4>
 8003a94:	2200      	movs	r2, #0
 8003a96:	920c      	str	r2, [sp, #48]	@ 0x30
 8003a98:	6959      	ldr	r1, [r3, #20]
 8003a9a:	910c      	str	r1, [sp, #48]	@ 0x30
 8003a9c:	699b      	ldr	r3, [r3, #24]
 8003a9e:	f884 203c 	strb.w	r2, [r4, #60]	@ 0x3c
 8003aa2:	930c      	str	r3, [sp, #48]	@ 0x30
 8003aa4:	9b0c      	ldr	r3, [sp, #48]	@ 0x30
 8003aa6:	e4f3      	b.n	8003490 <HAL_I2C_EV_IRQHandler+0x38>
 8003aa8:	2000000c 	.word	0x2000000c
 8003aac:	06c6      	lsls	r6, r0, #27
 8003aae:	f140 80b1 	bpl.w	8003c14 <HAL_I2C_EV_IRQHandler+0x7bc>
 8003ab2:	0595      	lsls	r5, r2, #22
 8003ab4:	f140 80ae 	bpl.w	8003c14 <HAL_I2C_EV_IRQHandler+0x7bc>
 8003ab8:	f894 503d 	ldrb.w	r5, [r4, #61]	@ 0x3d
 8003abc:	685a      	ldr	r2, [r3, #4]
 8003abe:	b2ed      	uxtb	r5, r5
 8003ac0:	f422 62e0 	bic.w	r2, r2, #1792	@ 0x700
 8003ac4:	605a      	str	r2, [r3, #4]
 8003ac6:	2200      	movs	r2, #0
 8003ac8:	920d      	str	r2, [sp, #52]	@ 0x34
 8003aca:	695a      	ldr	r2, [r3, #20]
 8003acc:	920d      	str	r2, [sp, #52]	@ 0x34
 8003ace:	681a      	ldr	r2, [r3, #0]
 8003ad0:	f042 0201 	orr.w	r2, r2, #1
 8003ad4:	601a      	str	r2, [r3, #0]
 8003ad6:	9a0d      	ldr	r2, [sp, #52]	@ 0x34
 8003ad8:	681a      	ldr	r2, [r3, #0]
 8003ada:	f422 6280 	bic.w	r2, r2, #1024	@ 0x400
 8003ade:	601a      	str	r2, [r3, #0]
 8003ae0:	685a      	ldr	r2, [r3, #4]
 8003ae2:	0510      	lsls	r0, r2, #20
 8003ae4:	d520      	bpl.n	8003b28 <HAL_I2C_EV_IRQHandler+0x6d0>
 8003ae6:	f005 02f7 	and.w	r2, r5, #247	@ 0xf7
 8003aea:	2a22      	cmp	r2, #34	@ 0x22
 8003aec:	d14a      	bne.n	8003b84 <HAL_I2C_EV_IRQHandler+0x72c>
 8003aee:	6ba0      	ldr	r0, [r4, #56]	@ 0x38
 8003af0:	6802      	ldr	r2, [r0, #0]
 8003af2:	6852      	ldr	r2, [r2, #4]
 8003af4:	b292      	uxth	r2, r2
 8003af6:	8562      	strh	r2, [r4, #42]	@ 0x2a
 8003af8:	8d62      	ldrh	r2, [r4, #42]	@ 0x2a
 8003afa:	b292      	uxth	r2, r2
 8003afc:	b11a      	cbz	r2, 8003b06 <HAL_I2C_EV_IRQHandler+0x6ae>
 8003afe:	6c22      	ldr	r2, [r4, #64]	@ 0x40
 8003b00:	f042 0204 	orr.w	r2, r2, #4
 8003b04:	6422      	str	r2, [r4, #64]	@ 0x40
 8003b06:	685a      	ldr	r2, [r3, #4]
 8003b08:	f422 6200 	bic.w	r2, r2, #2048	@ 0x800
 8003b0c:	605a      	str	r2, [r3, #4]
 8003b0e:	f7fe fdfb 	bl	8002708 <HAL_DMA_GetState>
 8003b12:	2801      	cmp	r0, #1
 8003b14:	d008      	beq.n	8003b28 <HAL_I2C_EV_IRQHandler+0x6d0>
 8003b16:	6ba0      	ldr	r0, [r4, #56]	@ 0x38
 8003b18:	4b79      	ldr	r3, [pc, #484]	@ (8003d00 <HAL_I2C_EV_IRQHandler+0x8a8>)
 8003b1a:	6343      	str	r3, [r0, #52]	@ 0x34
 8003b1c:	f7fe fdae 	bl	800267c <HAL_DMA_Abort_IT>
 8003b20:	b110      	cbz	r0, 8003b28 <HAL_I2C_EV_IRQHandler+0x6d0>
 8003b22:	6ba0      	ldr	r0, [r4, #56]	@ 0x38
 8003b24:	6b43      	ldr	r3, [r0, #52]	@ 0x34
 8003b26:	4798      	blx	r3
 8003b28:	8d63      	ldrh	r3, [r4, #42]	@ 0x2a
 8003b2a:	b29b      	uxth	r3, r3
 8003b2c:	b313      	cbz	r3, 8003b74 <HAL_I2C_EV_IRQHandler+0x71c>
 8003b2e:	6823      	ldr	r3, [r4, #0]
 8003b30:	695a      	ldr	r2, [r3, #20]
 8003b32:	0751      	lsls	r1, r2, #29
 8003b34:	d509      	bpl.n	8003b4a <HAL_I2C_EV_IRQHandler+0x6f2>
 8003b36:	691a      	ldr	r2, [r3, #16]
 8003b38:	6a63      	ldr	r3, [r4, #36]	@ 0x24
 8003b3a:	701a      	strb	r2, [r3, #0]
 8003b3c:	6a63      	ldr	r3, [r4, #36]	@ 0x24
 8003b3e:	3301      	adds	r3, #1
 8003b40:	6263      	str	r3, [r4, #36]	@ 0x24
 8003b42:	8d63      	ldrh	r3, [r4, #42]	@ 0x2a
 8003b44:	3b01      	subs	r3, #1
 8003b46:	b29b      	uxth	r3, r3
 8003b48:	8563      	strh	r3, [r4, #42]	@ 0x2a
 8003b4a:	6823      	ldr	r3, [r4, #0]
 8003b4c:	695a      	ldr	r2, [r3, #20]
 8003b4e:	0652      	lsls	r2, r2, #25
 8003b50:	d509      	bpl.n	8003b66 <HAL_I2C_EV_IRQHandler+0x70e>
 8003b52:	691a      	ldr	r2, [r3, #16]
 8003b54:	6a63      	ldr	r3, [r4, #36]	@ 0x24
 8003b56:	701a      	strb	r2, [r3, #0]
 8003b58:	6a63      	ldr	r3, [r4, #36]	@ 0x24
 8003b5a:	3301      	adds	r3, #1
 8003b5c:	6263      	str	r3, [r4, #36]	@ 0x24
 8003b5e:	8d63      	ldrh	r3, [r4, #42]	@ 0x2a
 8003b60:	3b01      	subs	r3, #1
 8003b62:	b29b      	uxth	r3, r3
 8003b64:	8563      	strh	r3, [r4, #42]	@ 0x2a
 8003b66:	8d63      	ldrh	r3, [r4, #42]	@ 0x2a
 8003b68:	b29b      	uxth	r3, r3
 8003b6a:	b11b      	cbz	r3, 8003b74 <HAL_I2C_EV_IRQHandler+0x71c>
 8003b6c:	6c23      	ldr	r3, [r4, #64]	@ 0x40
 8003b6e:	f043 0304 	orr.w	r3, r3, #4
 8003b72:	6423      	str	r3, [r4, #64]	@ 0x40
 8003b74:	6c23      	ldr	r3, [r4, #64]	@ 0x40
 8003b76:	b313      	cbz	r3, 8003bbe <HAL_I2C_EV_IRQHandler+0x766>
 8003b78:	4620      	mov	r0, r4
 8003b7a:	b00f      	add	sp, #60	@ 0x3c
 8003b7c:	e8bd 40f0 	ldmia.w	sp!, {r4, r5, r6, r7, lr}
 8003b80:	f7ff bbc2 	b.w	8003308 <I2C_ITError>
 8003b84:	6b60      	ldr	r0, [r4, #52]	@ 0x34
 8003b86:	6802      	ldr	r2, [r0, #0]
 8003b88:	6852      	ldr	r2, [r2, #4]
 8003b8a:	b292      	uxth	r2, r2
 8003b8c:	8562      	strh	r2, [r4, #42]	@ 0x2a
 8003b8e:	8d62      	ldrh	r2, [r4, #42]	@ 0x2a
 8003b90:	b292      	uxth	r2, r2
 8003b92:	b11a      	cbz	r2, 8003b9c <HAL_I2C_EV_IRQHandler+0x744>
 8003b94:	6c22      	ldr	r2, [r4, #64]	@ 0x40
 8003b96:	f042 0204 	orr.w	r2, r2, #4
 8003b9a:	6422      	str	r2, [r4, #64]	@ 0x40
 8003b9c:	685a      	ldr	r2, [r3, #4]
 8003b9e:	f422 6200 	bic.w	r2, r2, #2048	@ 0x800
 8003ba2:	605a      	str	r2, [r3, #4]
 8003ba4:	f7fe fdb0 	bl	8002708 <HAL_DMA_GetState>
 8003ba8:	2801      	cmp	r0, #1
 8003baa:	d0bd      	beq.n	8003b28 <HAL_I2C_EV_IRQHandler+0x6d0>
 8003bac:	6b60      	ldr	r0, [r4, #52]	@ 0x34
 8003bae:	4b54      	ldr	r3, [pc, #336]	@ (8003d00 <HAL_I2C_EV_IRQHandler+0x8a8>)
 8003bb0:	6343      	str	r3, [r0, #52]	@ 0x34
 8003bb2:	f7fe fd63 	bl	800267c <HAL_DMA_Abort_IT>
 8003bb6:	2800      	cmp	r0, #0
 8003bb8:	d0b6      	beq.n	8003b28 <HAL_I2C_EV_IRQHandler+0x6d0>
 8003bba:	6b60      	ldr	r0, [r4, #52]	@ 0x34
 8003bbc:	e7b2      	b.n	8003b24 <HAL_I2C_EV_IRQHandler+0x6cc>
 8003bbe:	2d2a      	cmp	r5, #42	@ 0x2a
 8003bc0:	d106      	bne.n	8003bd0 <HAL_I2C_EV_IRQHandler+0x778>
 8003bc2:	6323      	str	r3, [r4, #48]	@ 0x30
 8003bc4:	2328      	movs	r3, #40	@ 0x28
 8003bc6:	4620      	mov	r0, r4
 8003bc8:	f884 303d 	strb.w	r3, [r4, #61]	@ 0x3d
 8003bcc:	f7ff fadd 	bl	800318a <HAL_I2C_SlaveRxCpltCallback>
 8003bd0:	f894 303d 	ldrb.w	r3, [r4, #61]	@ 0x3d
 8003bd4:	2b28      	cmp	r3, #40	@ 0x28
 8003bd6:	d10c      	bne.n	8003bf2 <HAL_I2C_EV_IRQHandler+0x79a>
 8003bd8:	4b4a      	ldr	r3, [pc, #296]	@ (8003d04 <HAL_I2C_EV_IRQHandler+0x8ac>)
 8003bda:	2220      	movs	r2, #32
 8003bdc:	62e3      	str	r3, [r4, #44]	@ 0x2c
 8003bde:	2300      	movs	r3, #0
 8003be0:	4620      	mov	r0, r4
 8003be2:	6323      	str	r3, [r4, #48]	@ 0x30
 8003be4:	f884 203d 	strb.w	r2, [r4, #61]	@ 0x3d
 8003be8:	f884 303e 	strb.w	r3, [r4, #62]	@ 0x3e
 8003bec:	f7ff facf 	bl	800318e <HAL_I2C_ListenCpltCallback>
 8003bf0:	e44e      	b.n	8003490 <HAL_I2C_EV_IRQHandler+0x38>
 8003bf2:	6b23      	ldr	r3, [r4, #48]	@ 0x30
 8003bf4:	2b22      	cmp	r3, #34	@ 0x22
 8003bf6:	d002      	beq.n	8003bfe <HAL_I2C_EV_IRQHandler+0x7a6>
 8003bf8:	2d22      	cmp	r5, #34	@ 0x22
 8003bfa:	f47f ac49 	bne.w	8003490 <HAL_I2C_EV_IRQHandler+0x38>
 8003bfe:	2300      	movs	r3, #0
 8003c00:	2220      	movs	r2, #32
 8003c02:	6323      	str	r3, [r4, #48]	@ 0x30
 8003c04:	f884 203d 	strb.w	r2, [r4, #61]	@ 0x3d
 8003c08:	f884 303e 	strb.w	r3, [r4, #62]	@ 0x3e
 8003c0c:	4620      	mov	r0, r4
 8003c0e:	f7ff fabc 	bl	800318a <HAL_I2C_SlaveRxCpltCallback>
 8003c12:	e43d      	b.n	8003490 <HAL_I2C_EV_IRQHandler+0x38>
 8003c14:	f001 01f7 	and.w	r1, r1, #247	@ 0xf7
 8003c18:	2921      	cmp	r1, #33	@ 0x21
 8003c1a:	f000 0504 	and.w	r5, r0, #4
 8003c1e:	d135      	bne.n	8003c8c <HAL_I2C_EV_IRQHandler+0x834>
 8003c20:	0607      	lsls	r7, r0, #24
 8003c22:	d527      	bpl.n	8003c74 <HAL_I2C_EV_IRQHandler+0x81c>
 8003c24:	0556      	lsls	r6, r2, #21
 8003c26:	d525      	bpl.n	8003c74 <HAL_I2C_EV_IRQHandler+0x81c>
 8003c28:	bb3d      	cbnz	r5, 8003c7a <HAL_I2C_EV_IRQHandler+0x822>
 8003c2a:	f894 003d 	ldrb.w	r0, [r4, #61]	@ 0x3d
 8003c2e:	8d62      	ldrh	r2, [r4, #42]	@ 0x2a
 8003c30:	b2c0      	uxtb	r0, r0
 8003c32:	b292      	uxth	r2, r2
 8003c34:	2a00      	cmp	r2, #0
 8003c36:	f43f ac2b 	beq.w	8003490 <HAL_I2C_EV_IRQHandler+0x38>
 8003c3a:	6a62      	ldr	r2, [r4, #36]	@ 0x24
 8003c3c:	f812 5b01 	ldrb.w	r5, [r2], #1
 8003c40:	611d      	str	r5, [r3, #16]
 8003c42:	6262      	str	r2, [r4, #36]	@ 0x24
 8003c44:	8d62      	ldrh	r2, [r4, #42]	@ 0x2a
 8003c46:	3a01      	subs	r2, #1
 8003c48:	b292      	uxth	r2, r2
 8003c4a:	8562      	strh	r2, [r4, #42]	@ 0x2a
 8003c4c:	8d62      	ldrh	r2, [r4, #42]	@ 0x2a
 8003c4e:	b292      	uxth	r2, r2
 8003c50:	2a00      	cmp	r2, #0
 8003c52:	f47f ac1d 	bne.w	8003490 <HAL_I2C_EV_IRQHandler+0x38>
 8003c56:	2829      	cmp	r0, #41	@ 0x29
 8003c58:	f47f ac1a 	bne.w	8003490 <HAL_I2C_EV_IRQHandler+0x38>
 8003c5c:	685a      	ldr	r2, [r3, #4]
 8003c5e:	4620      	mov	r0, r4
 8003c60:	f422 6280 	bic.w	r2, r2, #1024	@ 0x400
 8003c64:	605a      	str	r2, [r3, #4]
 8003c66:	2328      	movs	r3, #40	@ 0x28
 8003c68:	6321      	str	r1, [r4, #48]	@ 0x30
 8003c6a:	f884 303d 	strb.w	r3, [r4, #61]	@ 0x3d
 8003c6e:	f7ff fa8b 	bl	8003188 <HAL_I2C_SlaveTxCpltCallback>
 8003c72:	e40d      	b.n	8003490 <HAL_I2C_EV_IRQHandler+0x38>
 8003c74:	2d00      	cmp	r5, #0
 8003c76:	f43f ac0b 	beq.w	8003490 <HAL_I2C_EV_IRQHandler+0x38>
 8003c7a:	0595      	lsls	r5, r2, #22
 8003c7c:	f57f ac08 	bpl.w	8003490 <HAL_I2C_EV_IRQHandler+0x38>
 8003c80:	8d62      	ldrh	r2, [r4, #42]	@ 0x2a
 8003c82:	b292      	uxth	r2, r2
 8003c84:	2a00      	cmp	r2, #0
 8003c86:	f43f ac03 	beq.w	8003490 <HAL_I2C_EV_IRQHandler+0x38>
 8003c8a:	e5a7      	b.n	80037dc <HAL_I2C_EV_IRQHandler+0x384>
 8003c8c:	0640      	lsls	r0, r0, #25
 8003c8e:	d527      	bpl.n	8003ce0 <HAL_I2C_EV_IRQHandler+0x888>
 8003c90:	0551      	lsls	r1, r2, #21
 8003c92:	d525      	bpl.n	8003ce0 <HAL_I2C_EV_IRQHandler+0x888>
 8003c94:	bb3d      	cbnz	r5, 8003ce6 <HAL_I2C_EV_IRQHandler+0x88e>
 8003c96:	f894 203d 	ldrb.w	r2, [r4, #61]	@ 0x3d
 8003c9a:	8d61      	ldrh	r1, [r4, #42]	@ 0x2a
 8003c9c:	b2d2      	uxtb	r2, r2
 8003c9e:	b289      	uxth	r1, r1
 8003ca0:	2900      	cmp	r1, #0
 8003ca2:	f43f abf5 	beq.w	8003490 <HAL_I2C_EV_IRQHandler+0x38>
 8003ca6:	6919      	ldr	r1, [r3, #16]
 8003ca8:	6a63      	ldr	r3, [r4, #36]	@ 0x24
 8003caa:	7019      	strb	r1, [r3, #0]
 8003cac:	6a63      	ldr	r3, [r4, #36]	@ 0x24
 8003cae:	3301      	adds	r3, #1
 8003cb0:	6263      	str	r3, [r4, #36]	@ 0x24
 8003cb2:	8d63      	ldrh	r3, [r4, #42]	@ 0x2a
 8003cb4:	3b01      	subs	r3, #1
 8003cb6:	b29b      	uxth	r3, r3
 8003cb8:	8563      	strh	r3, [r4, #42]	@ 0x2a
 8003cba:	8d63      	ldrh	r3, [r4, #42]	@ 0x2a
 8003cbc:	b29b      	uxth	r3, r3
 8003cbe:	2b00      	cmp	r3, #0
 8003cc0:	f47f abe6 	bne.w	8003490 <HAL_I2C_EV_IRQHandler+0x38>
 8003cc4:	2a2a      	cmp	r2, #42	@ 0x2a
 8003cc6:	f47f abe3 	bne.w	8003490 <HAL_I2C_EV_IRQHandler+0x38>
 8003cca:	6822      	ldr	r2, [r4, #0]
 8003ccc:	6853      	ldr	r3, [r2, #4]
 8003cce:	f423 6380 	bic.w	r3, r3, #1024	@ 0x400
 8003cd2:	6053      	str	r3, [r2, #4]
 8003cd4:	2322      	movs	r3, #34	@ 0x22
 8003cd6:	6323      	str	r3, [r4, #48]	@ 0x30
 8003cd8:	2328      	movs	r3, #40	@ 0x28
 8003cda:	f884 303d 	strb.w	r3, [r4, #61]	@ 0x3d
 8003cde:	e795      	b.n	8003c0c <HAL_I2C_EV_IRQHandler+0x7b4>
 8003ce0:	2d00      	cmp	r5, #0
 8003ce2:	f43f abd5 	beq.w	8003490 <HAL_I2C_EV_IRQHandler+0x38>
 8003ce6:	0592      	lsls	r2, r2, #22
 8003ce8:	f57f abd2 	bpl.w	8003490 <HAL_I2C_EV_IRQHandler+0x38>
 8003cec:	8d62      	ldrh	r2, [r4, #42]	@ 0x2a
 8003cee:	b292      	uxth	r2, r2
 8003cf0:	2a00      	cmp	r2, #0
 8003cf2:	f43f abcd 	beq.w	8003490 <HAL_I2C_EV_IRQHandler+0x38>
 8003cf6:	691a      	ldr	r2, [r3, #16]
 8003cf8:	6a63      	ldr	r3, [r4, #36]	@ 0x24
 8003cfa:	701a      	strb	r2, [r3, #0]
 8003cfc:	e64b      	b.n	8003996 <HAL_I2C_EV_IRQHandler+0x53e>
 8003cfe:	bf00      	nop
 8003d00:	08003249 	.word	0x08003249
 8003d04:	ffff0000 	.word	0xffff0000

08003d08 <HAL_RCC_OscConfig>:
 8003d08:	e92d 41f3 	stmdb	sp!, {r0, r1, r4, r5, r6, r7, r8, lr}
 8003d0c:	4605      	mov	r5, r0
 8003d0e:	b338      	cbz	r0, 8003d60 <HAL_RCC_OscConfig+0x58>
 8003d10:	6803      	ldr	r3, [r0, #0]
 8003d12:	07db      	lsls	r3, r3, #31
 8003d14:	d410      	bmi.n	8003d38 <HAL_RCC_OscConfig+0x30>
 8003d16:	682b      	ldr	r3, [r5, #0]
 8003d18:	079f      	lsls	r7, r3, #30
 8003d1a:	d45e      	bmi.n	8003dda <HAL_RCC_OscConfig+0xd2>
 8003d1c:	682b      	ldr	r3, [r5, #0]
 8003d1e:	0719      	lsls	r1, r3, #28
 8003d20:	f100 8095 	bmi.w	8003e4e <HAL_RCC_OscConfig+0x146>
 8003d24:	682b      	ldr	r3, [r5, #0]
 8003d26:	075a      	lsls	r2, r3, #29
 8003d28:	f100 80c1 	bmi.w	8003eae <HAL_RCC_OscConfig+0x1a6>
 8003d2c:	69eb      	ldr	r3, [r5, #28]
 8003d2e:	2b00      	cmp	r3, #0
 8003d30:	f040 812c 	bne.w	8003f8c <HAL_RCC_OscConfig+0x284>
 8003d34:	2000      	movs	r0, #0
 8003d36:	e029      	b.n	8003d8c <HAL_RCC_OscConfig+0x84>
 8003d38:	4c90      	ldr	r4, [pc, #576]	@ (8003f7c <HAL_RCC_OscConfig+0x274>)
 8003d3a:	6863      	ldr	r3, [r4, #4]
 8003d3c:	f003 030c 	and.w	r3, r3, #12
 8003d40:	2b04      	cmp	r3, #4
 8003d42:	d007      	beq.n	8003d54 <HAL_RCC_OscConfig+0x4c>
 8003d44:	6863      	ldr	r3, [r4, #4]
 8003d46:	f003 030c 	and.w	r3, r3, #12
 8003d4a:	2b08      	cmp	r3, #8
 8003d4c:	d10a      	bne.n	8003d64 <HAL_RCC_OscConfig+0x5c>
 8003d4e:	6863      	ldr	r3, [r4, #4]
 8003d50:	03de      	lsls	r6, r3, #15
 8003d52:	d507      	bpl.n	8003d64 <HAL_RCC_OscConfig+0x5c>
 8003d54:	6823      	ldr	r3, [r4, #0]
 8003d56:	039c      	lsls	r4, r3, #14
 8003d58:	d5dd      	bpl.n	8003d16 <HAL_RCC_OscConfig+0xe>
 8003d5a:	686b      	ldr	r3, [r5, #4]
 8003d5c:	2b00      	cmp	r3, #0
 8003d5e:	d1da      	bne.n	8003d16 <HAL_RCC_OscConfig+0xe>
 8003d60:	2001      	movs	r0, #1
 8003d62:	e013      	b.n	8003d8c <HAL_RCC_OscConfig+0x84>
 8003d64:	686b      	ldr	r3, [r5, #4]
 8003d66:	f5b3 3f80 	cmp.w	r3, #65536	@ 0x10000
 8003d6a:	d112      	bne.n	8003d92 <HAL_RCC_OscConfig+0x8a>
 8003d6c:	6823      	ldr	r3, [r4, #0]
 8003d6e:	f443 3380 	orr.w	r3, r3, #65536	@ 0x10000
 8003d72:	6023      	str	r3, [r4, #0]
 8003d74:	f7fe fbe6 	bl	8002544 <HAL_GetTick>
 8003d78:	4606      	mov	r6, r0
 8003d7a:	6823      	ldr	r3, [r4, #0]
 8003d7c:	0398      	lsls	r0, r3, #14
 8003d7e:	d4ca      	bmi.n	8003d16 <HAL_RCC_OscConfig+0xe>
 8003d80:	f7fe fbe0 	bl	8002544 <HAL_GetTick>
 8003d84:	1b80      	subs	r0, r0, r6
 8003d86:	2864      	cmp	r0, #100	@ 0x64
 8003d88:	d9f7      	bls.n	8003d7a <HAL_RCC_OscConfig+0x72>
 8003d8a:	2003      	movs	r0, #3
 8003d8c:	b002      	add	sp, #8
 8003d8e:	e8bd 81f0 	ldmia.w	sp!, {r4, r5, r6, r7, r8, pc}
 8003d92:	b99b      	cbnz	r3, 8003dbc <HAL_RCC_OscConfig+0xb4>
 8003d94:	6823      	ldr	r3, [r4, #0]
 8003d96:	f423 3380 	bic.w	r3, r3, #65536	@ 0x10000
 8003d9a:	6023      	str	r3, [r4, #0]
 8003d9c:	6823      	ldr	r3, [r4, #0]
 8003d9e:	f423 2380 	bic.w	r3, r3, #262144	@ 0x40000
 8003da2:	6023      	str	r3, [r4, #0]
 8003da4:	f7fe fbce 	bl	8002544 <HAL_GetTick>
 8003da8:	4606      	mov	r6, r0
 8003daa:	6823      	ldr	r3, [r4, #0]
 8003dac:	0399      	lsls	r1, r3, #14
 8003dae:	d5b2      	bpl.n	8003d16 <HAL_RCC_OscConfig+0xe>
 8003db0:	f7fe fbc8 	bl	8002544 <HAL_GetTick>
 8003db4:	1b80      	subs	r0, r0, r6
 8003db6:	2864      	cmp	r0, #100	@ 0x64
 8003db8:	d9f7      	bls.n	8003daa <HAL_RCC_OscConfig+0xa2>
 8003dba:	e7e6      	b.n	8003d8a <HAL_RCC_OscConfig+0x82>
 8003dbc:	f5b3 2fa0 	cmp.w	r3, #327680	@ 0x50000
 8003dc0:	6823      	ldr	r3, [r4, #0]
 8003dc2:	d103      	bne.n	8003dcc <HAL_RCC_OscConfig+0xc4>
 8003dc4:	f443 2380 	orr.w	r3, r3, #262144	@ 0x40000
 8003dc8:	6023      	str	r3, [r4, #0]
 8003dca:	e7cf      	b.n	8003d6c <HAL_RCC_OscConfig+0x64>
 8003dcc:	f423 3380 	bic.w	r3, r3, #65536	@ 0x10000
 8003dd0:	6023      	str	r3, [r4, #0]
 8003dd2:	6823      	ldr	r3, [r4, #0]
 8003dd4:	f423 2380 	bic.w	r3, r3, #262144	@ 0x40000
 8003dd8:	e7cb      	b.n	8003d72 <HAL_RCC_OscConfig+0x6a>
 8003dda:	4c68      	ldr	r4, [pc, #416]	@ (8003f7c <HAL_RCC_OscConfig+0x274>)
 8003ddc:	6863      	ldr	r3, [r4, #4]
 8003dde:	f013 0f0c 	tst.w	r3, #12
 8003de2:	d007      	beq.n	8003df4 <HAL_RCC_OscConfig+0xec>
 8003de4:	6863      	ldr	r3, [r4, #4]
 8003de6:	f003 030c 	and.w	r3, r3, #12
 8003dea:	2b08      	cmp	r3, #8
 8003dec:	d110      	bne.n	8003e10 <HAL_RCC_OscConfig+0x108>
 8003dee:	6863      	ldr	r3, [r4, #4]
 8003df0:	03da      	lsls	r2, r3, #15
 8003df2:	d40d      	bmi.n	8003e10 <HAL_RCC_OscConfig+0x108>
 8003df4:	6823      	ldr	r3, [r4, #0]
 8003df6:	079b      	lsls	r3, r3, #30
 8003df8:	d502      	bpl.n	8003e00 <HAL_RCC_OscConfig+0xf8>
 8003dfa:	692b      	ldr	r3, [r5, #16]
 8003dfc:	2b01      	cmp	r3, #1
 8003dfe:	d1af      	bne.n	8003d60 <HAL_RCC_OscConfig+0x58>
 8003e00:	6823      	ldr	r3, [r4, #0]
 8003e02:	696a      	ldr	r2, [r5, #20]
 8003e04:	f023 03f8 	bic.w	r3, r3, #248	@ 0xf8
 8003e08:	ea43 03c2 	orr.w	r3, r3, r2, lsl #3
 8003e0c:	6023      	str	r3, [r4, #0]
 8003e0e:	e785      	b.n	8003d1c <HAL_RCC_OscConfig+0x14>
 8003e10:	692a      	ldr	r2, [r5, #16]
 8003e12:	4b5b      	ldr	r3, [pc, #364]	@ (8003f80 <HAL_RCC_OscConfig+0x278>)
 8003e14:	b16a      	cbz	r2, 8003e32 <HAL_RCC_OscConfig+0x12a>
 8003e16:	2201      	movs	r2, #1
 8003e18:	601a      	str	r2, [r3, #0]
 8003e1a:	f7fe fb93 	bl	8002544 <HAL_GetTick>
 8003e1e:	4606      	mov	r6, r0
 8003e20:	6823      	ldr	r3, [r4, #0]
 8003e22:	079f      	lsls	r7, r3, #30
 8003e24:	d4ec      	bmi.n	8003e00 <HAL_RCC_OscConfig+0xf8>
 8003e26:	f7fe fb8d 	bl	8002544 <HAL_GetTick>
 8003e2a:	1b80      	subs	r0, r0, r6
 8003e2c:	2802      	cmp	r0, #2
 8003e2e:	d9f7      	bls.n	8003e20 <HAL_RCC_OscConfig+0x118>
 8003e30:	e7ab      	b.n	8003d8a <HAL_RCC_OscConfig+0x82>
 8003e32:	601a      	str	r2, [r3, #0]
 8003e34:	f7fe fb86 	bl	8002544 <HAL_GetTick>
 8003e38:	4606      	mov	r6, r0
 8003e3a:	6823      	ldr	r3, [r4, #0]
 8003e3c:	0798      	lsls	r0, r3, #30
 8003e3e:	f57f af6d 	bpl.w	8003d1c <HAL_RCC_OscConfig+0x14>
 8003e42:	f7fe fb7f 	bl	8002544 <HAL_GetTick>
 8003e46:	1b80      	subs	r0, r0, r6
 8003e48:	2802      	cmp	r0, #2
 8003e4a:	d9f6      	bls.n	8003e3a <HAL_RCC_OscConfig+0x132>
 8003e4c:	e79d      	b.n	8003d8a <HAL_RCC_OscConfig+0x82>
 8003e4e:	69aa      	ldr	r2, [r5, #24]
 8003e50:	4e4a      	ldr	r6, [pc, #296]	@ (8003f7c <HAL_RCC_OscConfig+0x274>)
 8003e52:	4b4b      	ldr	r3, [pc, #300]	@ (8003f80 <HAL_RCC_OscConfig+0x278>)
 8003e54:	b1e2      	cbz	r2, 8003e90 <HAL_RCC_OscConfig+0x188>
 8003e56:	2201      	movs	r2, #1
 8003e58:	f8c3 2480 	str.w	r2, [r3, #1152]	@ 0x480
 8003e5c:	f7fe fb72 	bl	8002544 <HAL_GetTick>
 8003e60:	4604      	mov	r4, r0
 8003e62:	6a73      	ldr	r3, [r6, #36]	@ 0x24
 8003e64:	079b      	lsls	r3, r3, #30
 8003e66:	d50d      	bpl.n	8003e84 <HAL_RCC_OscConfig+0x17c>
 8003e68:	f44f 52fa 	mov.w	r2, #8000	@ 0x1f40
 8003e6c:	4b45      	ldr	r3, [pc, #276]	@ (8003f84 <HAL_RCC_OscConfig+0x27c>)
 8003e6e:	681b      	ldr	r3, [r3, #0]
 8003e70:	fbb3 f3f2 	udiv	r3, r3, r2
 8003e74:	9301      	str	r3, [sp, #4]
 8003e76:	bf00      	nop
 8003e78:	9b01      	ldr	r3, [sp, #4]
 8003e7a:	1e5a      	subs	r2, r3, #1
 8003e7c:	9201      	str	r2, [sp, #4]
 8003e7e:	2b00      	cmp	r3, #0
 8003e80:	d1f9      	bne.n	8003e76 <HAL_RCC_OscConfig+0x16e>
 8003e82:	e74f      	b.n	8003d24 <HAL_RCC_OscConfig+0x1c>
 8003e84:	f7fe fb5e 	bl	8002544 <HAL_GetTick>
 8003e88:	1b00      	subs	r0, r0, r4
 8003e8a:	2802      	cmp	r0, #2
 8003e8c:	d9e9      	bls.n	8003e62 <HAL_RCC_OscConfig+0x15a>
 8003e8e:	e77c      	b.n	8003d8a <HAL_RCC_OscConfig+0x82>
 8003e90:	f8c3 2480 	str.w	r2, [r3, #1152]	@ 0x480
 8003e94:	f7fe fb56 	bl	8002544 <HAL_GetTick>
 8003e98:	4604      	mov	r4, r0
 8003e9a:	6a73      	ldr	r3, [r6, #36]	@ 0x24
 8003e9c:	079f      	lsls	r7, r3, #30
 8003e9e:	f57f af41 	bpl.w	8003d24 <HAL_RCC_OscConfig+0x1c>
 8003ea2:	f7fe fb4f 	bl	8002544 <HAL_GetTick>
 8003ea6:	1b00      	subs	r0, r0, r4
 8003ea8:	2802      	cmp	r0, #2
 8003eaa:	d9f6      	bls.n	8003e9a <HAL_RCC_OscConfig+0x192>
 8003eac:	e76d      	b.n	8003d8a <HAL_RCC_OscConfig+0x82>
 8003eae:	4c33      	ldr	r4, [pc, #204]	@ (8003f7c <HAL_RCC_OscConfig+0x274>)
 8003eb0:	69e3      	ldr	r3, [r4, #28]
 8003eb2:	00d8      	lsls	r0, r3, #3
 8003eb4:	d424      	bmi.n	8003f00 <HAL_RCC_OscConfig+0x1f8>
 8003eb6:	2701      	movs	r7, #1
 8003eb8:	69e3      	ldr	r3, [r4, #28]
 8003eba:	f043 5380 	orr.w	r3, r3, #268435456	@ 0x10000000
 8003ebe:	61e3      	str	r3, [r4, #28]
 8003ec0:	69e3      	ldr	r3, [r4, #28]
 8003ec2:	f003 5380 	and.w	r3, r3, #268435456	@ 0x10000000
 8003ec6:	9300      	str	r3, [sp, #0]
 8003ec8:	9b00      	ldr	r3, [sp, #0]
 8003eca:	4e2f      	ldr	r6, [pc, #188]	@ (8003f88 <HAL_RCC_OscConfig+0x280>)
 8003ecc:	6833      	ldr	r3, [r6, #0]
 8003ece:	05d9      	lsls	r1, r3, #23
 8003ed0:	d518      	bpl.n	8003f04 <HAL_RCC_OscConfig+0x1fc>
 8003ed2:	68eb      	ldr	r3, [r5, #12]
 8003ed4:	2b01      	cmp	r3, #1
 8003ed6:	d126      	bne.n	8003f26 <HAL_RCC_OscConfig+0x21e>
 8003ed8:	6a23      	ldr	r3, [r4, #32]
 8003eda:	f043 0301 	orr.w	r3, r3, #1
 8003ede:	6223      	str	r3, [r4, #32]
 8003ee0:	f7fe fb30 	bl	8002544 <HAL_GetTick>
 8003ee4:	f241 3888 	movw	r8, #5000	@ 0x1388
 8003ee8:	4606      	mov	r6, r0
 8003eea:	6a23      	ldr	r3, [r4, #32]
 8003eec:	079b      	lsls	r3, r3, #30
 8003eee:	d53f      	bpl.n	8003f70 <HAL_RCC_OscConfig+0x268>
 8003ef0:	2f00      	cmp	r7, #0
 8003ef2:	f43f af1b 	beq.w	8003d2c <HAL_RCC_OscConfig+0x24>
 8003ef6:	69e3      	ldr	r3, [r4, #28]
 8003ef8:	f023 5380 	bic.w	r3, r3, #268435456	@ 0x10000000
 8003efc:	61e3      	str	r3, [r4, #28]
 8003efe:	e715      	b.n	8003d2c <HAL_RCC_OscConfig+0x24>
 8003f00:	2700      	movs	r7, #0
 8003f02:	e7e2      	b.n	8003eca <HAL_RCC_OscConfig+0x1c2>
 8003f04:	6833      	ldr	r3, [r6, #0]
 8003f06:	f443 7380 	orr.w	r3, r3, #256	@ 0x100
 8003f0a:	6033      	str	r3, [r6, #0]
 8003f0c:	f7fe fb1a 	bl	8002544 <HAL_GetTick>
 8003f10:	4680      	mov	r8, r0
 8003f12:	6833      	ldr	r3, [r6, #0]
 8003f14:	05da      	lsls	r2, r3, #23
 8003f16:	d4dc      	bmi.n	8003ed2 <HAL_RCC_OscConfig+0x1ca>
 8003f18:	f7fe fb14 	bl	8002544 <HAL_GetTick>
 8003f1c:	eba0 0008 	sub.w	r0, r0, r8
 8003f20:	2864      	cmp	r0, #100	@ 0x64
 8003f22:	d9f6      	bls.n	8003f12 <HAL_RCC_OscConfig+0x20a>
 8003f24:	e731      	b.n	8003d8a <HAL_RCC_OscConfig+0x82>
 8003f26:	b9ab      	cbnz	r3, 8003f54 <HAL_RCC_OscConfig+0x24c>
 8003f28:	6a23      	ldr	r3, [r4, #32]
 8003f2a:	f241 3888 	movw	r8, #5000	@ 0x1388
 8003f2e:	f023 0301 	bic.w	r3, r3, #1
 8003f32:	6223      	str	r3, [r4, #32]
 8003f34:	6a23      	ldr	r3, [r4, #32]
 8003f36:	f023 0304 	bic.w	r3, r3, #4
 8003f3a:	6223      	str	r3, [r4, #32]
 8003f3c:	f7fe fb02 	bl	8002544 <HAL_GetTick>
 8003f40:	4606      	mov	r6, r0
 8003f42:	6a23      	ldr	r3, [r4, #32]
 8003f44:	0798      	lsls	r0, r3, #30
 8003f46:	d5d3      	bpl.n	8003ef0 <HAL_RCC_OscConfig+0x1e8>
 8003f48:	f7fe fafc 	bl	8002544 <HAL_GetTick>
 8003f4c:	1b80      	subs	r0, r0, r6
 8003f4e:	4540      	cmp	r0, r8
 8003f50:	d9f7      	bls.n	8003f42 <HAL_RCC_OscConfig+0x23a>
 8003f52:	e71a      	b.n	8003d8a <HAL_RCC_OscConfig+0x82>
 8003f54:	2b05      	cmp	r3, #5
 8003f56:	6a23      	ldr	r3, [r4, #32]
 8003f58:	d103      	bne.n	8003f62 <HAL_RCC_OscConfig+0x25a>
 8003f5a:	f043 0304 	orr.w	r3, r3, #4
 8003f5e:	6223      	str	r3, [r4, #32]
 8003f60:	e7ba      	b.n	8003ed8 <HAL_RCC_OscConfig+0x1d0>
 8003f62:	f023 0301 	bic.w	r3, r3, #1
 8003f66:	6223      	str	r3, [r4, #32]
 8003f68:	6a23      	ldr	r3, [r4, #32]
 8003f6a:	f023 0304 	bic.w	r3, r3, #4
 8003f6e:	e7b6      	b.n	8003ede <HAL_RCC_OscConfig+0x1d6>
 8003f70:	f7fe fae8 	bl	8002544 <HAL_GetTick>
 8003f74:	1b80      	subs	r0, r0, r6
 8003f76:	4540      	cmp	r0, r8
 8003f78:	d9b7      	bls.n	8003eea <HAL_RCC_OscConfig+0x1e2>
 8003f7a:	e706      	b.n	8003d8a <HAL_RCC_OscConfig+0x82>
 8003f7c:	40021000 	.word	0x40021000
 8003f80:	42420000 	.word	0x42420000
 8003f84:	2000000c 	.word	0x2000000c
 8003f88:	40007000 	.word	0x40007000
 8003f8c:	4c2a      	ldr	r4, [pc, #168]	@ (8004038 <HAL_RCC_OscConfig+0x330>)
 8003f8e:	6862      	ldr	r2, [r4, #4]
 8003f90:	f002 020c 	and.w	r2, r2, #12
 8003f94:	2a08      	cmp	r2, #8
 8003f96:	d03e      	beq.n	8004016 <HAL_RCC_OscConfig+0x30e>
 8003f98:	2200      	movs	r2, #0
 8003f9a:	2b02      	cmp	r3, #2
 8003f9c:	4b27      	ldr	r3, [pc, #156]	@ (800403c <HAL_RCC_OscConfig+0x334>)
 8003f9e:	661a      	str	r2, [r3, #96]	@ 0x60
 8003fa0:	d12c      	bne.n	8003ffc <HAL_RCC_OscConfig+0x2f4>
 8003fa2:	f7fe facf 	bl	8002544 <HAL_GetTick>
 8003fa6:	4606      	mov	r6, r0
 8003fa8:	6823      	ldr	r3, [r4, #0]
 8003faa:	0199      	lsls	r1, r3, #6
 8003fac:	d420      	bmi.n	8003ff0 <HAL_RCC_OscConfig+0x2e8>
 8003fae:	6a2b      	ldr	r3, [r5, #32]
 8003fb0:	f5b3 3f80 	cmp.w	r3, #65536	@ 0x10000
 8003fb4:	d105      	bne.n	8003fc2 <HAL_RCC_OscConfig+0x2ba>
 8003fb6:	6862      	ldr	r2, [r4, #4]
 8003fb8:	68a9      	ldr	r1, [r5, #8]
 8003fba:	f422 3200 	bic.w	r2, r2, #131072	@ 0x20000
 8003fbe:	430a      	orrs	r2, r1
 8003fc0:	6062      	str	r2, [r4, #4]
 8003fc2:	6a69      	ldr	r1, [r5, #36]	@ 0x24
 8003fc4:	6862      	ldr	r2, [r4, #4]
 8003fc6:	430b      	orrs	r3, r1
 8003fc8:	f422 1274 	bic.w	r2, r2, #3997696	@ 0x3d0000
 8003fcc:	4313      	orrs	r3, r2
 8003fce:	2201      	movs	r2, #1
 8003fd0:	6063      	str	r3, [r4, #4]
 8003fd2:	4b1a      	ldr	r3, [pc, #104]	@ (800403c <HAL_RCC_OscConfig+0x334>)
 8003fd4:	661a      	str	r2, [r3, #96]	@ 0x60
 8003fd6:	f7fe fab5 	bl	8002544 <HAL_GetTick>
 8003fda:	4605      	mov	r5, r0
 8003fdc:	6823      	ldr	r3, [r4, #0]
 8003fde:	019a      	lsls	r2, r3, #6
 8003fe0:	f53f aea8 	bmi.w	8003d34 <HAL_RCC_OscConfig+0x2c>
 8003fe4:	f7fe faae 	bl	8002544 <HAL_GetTick>
 8003fe8:	1b40      	subs	r0, r0, r5
 8003fea:	2802      	cmp	r0, #2
 8003fec:	d9f6      	bls.n	8003fdc <HAL_RCC_OscConfig+0x2d4>
 8003fee:	e6cc      	b.n	8003d8a <HAL_RCC_OscConfig+0x82>
 8003ff0:	f7fe faa8 	bl	8002544 <HAL_GetTick>
 8003ff4:	1b80      	subs	r0, r0, r6
 8003ff6:	2802      	cmp	r0, #2
 8003ff8:	d9d6      	bls.n	8003fa8 <HAL_RCC_OscConfig+0x2a0>
 8003ffa:	e6c6      	b.n	8003d8a <HAL_RCC_OscConfig+0x82>
 8003ffc:	f7fe faa2 	bl	8002544 <HAL_GetTick>
 8004000:	4605      	mov	r5, r0
 8004002:	6823      	ldr	r3, [r4, #0]
 8004004:	019b      	lsls	r3, r3, #6
 8004006:	f57f ae95 	bpl.w	8003d34 <HAL_RCC_OscConfig+0x2c>
 800400a:	f7fe fa9b 	bl	8002544 <HAL_GetTick>
 800400e:	1b40      	subs	r0, r0, r5
 8004010:	2802      	cmp	r0, #2
 8004012:	d9f6      	bls.n	8004002 <HAL_RCC_OscConfig+0x2fa>
 8004014:	e6b9      	b.n	8003d8a <HAL_RCC_OscConfig+0x82>
 8004016:	2b01      	cmp	r3, #1
 8004018:	f43f aea2 	beq.w	8003d60 <HAL_RCC_OscConfig+0x58>
 800401c:	6860      	ldr	r0, [r4, #4]
 800401e:	6a2b      	ldr	r3, [r5, #32]
 8004020:	f400 3280 	and.w	r2, r0, #65536	@ 0x10000
 8004024:	429a      	cmp	r2, r3
 8004026:	f47f ae9b 	bne.w	8003d60 <HAL_RCC_OscConfig+0x58>
 800402a:	6a6b      	ldr	r3, [r5, #36]	@ 0x24
 800402c:	f400 1070 	and.w	r0, r0, #3932160	@ 0x3c0000
 8004030:	1ac0      	subs	r0, r0, r3
 8004032:	bf18      	it	ne
 8004034:	2001      	movne	r0, #1
 8004036:	e6a9      	b.n	8003d8c <HAL_RCC_OscConfig+0x84>
 8004038:	40021000 	.word	0x40021000
 800403c:	42420000 	.word	0x42420000

08004040 <HAL_RCC_GetSysClockFreq>:
 8004040:	4a0d      	ldr	r2, [pc, #52]	@ (8004078 <HAL_RCC_GetSysClockFreq+0x38>)
 8004042:	6853      	ldr	r3, [r2, #4]
 8004044:	f003 010c 	and.w	r1, r3, #12
 8004048:	2908      	cmp	r1, #8
 800404a:	d112      	bne.n	8004072 <HAL_RCC_GetSysClockFreq+0x32>
 800404c:	480b      	ldr	r0, [pc, #44]	@ (800407c <HAL_RCC_GetSysClockFreq+0x3c>)
 800404e:	f3c3 4183 	ubfx	r1, r3, #18, #4
 8004052:	03db      	lsls	r3, r3, #15
 8004054:	5c40      	ldrb	r0, [r0, r1]
 8004056:	d509      	bpl.n	800406c <HAL_RCC_GetSysClockFreq+0x2c>
 8004058:	6853      	ldr	r3, [r2, #4]
 800405a:	4a09      	ldr	r2, [pc, #36]	@ (8004080 <HAL_RCC_GetSysClockFreq+0x40>)
 800405c:	f3c3 4340 	ubfx	r3, r3, #17, #1
 8004060:	4350      	muls	r0, r2
 8004062:	4a08      	ldr	r2, [pc, #32]	@ (8004084 <HAL_RCC_GetSysClockFreq+0x44>)
 8004064:	5cd3      	ldrb	r3, [r2, r3]
 8004066:	fbb0 f0f3 	udiv	r0, r0, r3
 800406a:	4770      	bx	lr
 800406c:	4b06      	ldr	r3, [pc, #24]	@ (8004088 <HAL_RCC_GetSysClockFreq+0x48>)
 800406e:	4358      	muls	r0, r3
 8004070:	4770      	bx	lr
 8004072:	4803      	ldr	r0, [pc, #12]	@ (8004080 <HAL_RCC_GetSysClockFreq+0x40>)
 8004074:	4770      	bx	lr
 8004076:	bf00      	nop
 8004078:	40021000 	.word	0x40021000
 800407c:	080057b4 	.word	0x080057b4
 8004080:	007a1200 	.word	0x007a1200
 8004084:	080057b2 	.word	0x080057b2
 8004088:	003d0900 	.word	0x003d0900

0800408c <HAL_RCC_ClockConfig>:
 800408c:	e92d 41f0 	stmdb	sp!, {r4, r5, r6, r7, r8, lr}
 8004090:	460d      	mov	r5, r1
 8004092:	4604      	mov	r4, r0
 8004094:	b910      	cbnz	r0, 800409c <HAL_RCC_ClockConfig+0x10>
 8004096:	2001      	movs	r0, #1
 8004098:	e8bd 81f0 	ldmia.w	sp!, {r4, r5, r6, r7, r8, pc}
 800409c:	4a44      	ldr	r2, [pc, #272]	@ (80041b0 <HAL_RCC_ClockConfig+0x124>)
 800409e:	6813      	ldr	r3, [r2, #0]
 80040a0:	f003 0307 	and.w	r3, r3, #7
 80040a4:	428b      	cmp	r3, r1
 80040a6:	d328      	bcc.n	80040fa <HAL_RCC_ClockConfig+0x6e>
 80040a8:	6821      	ldr	r1, [r4, #0]
 80040aa:	078e      	lsls	r6, r1, #30
 80040ac:	d430      	bmi.n	8004110 <HAL_RCC_ClockConfig+0x84>
 80040ae:	07ca      	lsls	r2, r1, #31
 80040b0:	d443      	bmi.n	800413a <HAL_RCC_ClockConfig+0xae>
 80040b2:	4a3f      	ldr	r2, [pc, #252]	@ (80041b0 <HAL_RCC_ClockConfig+0x124>)
 80040b4:	6813      	ldr	r3, [r2, #0]
 80040b6:	f003 0307 	and.w	r3, r3, #7
 80040ba:	42ab      	cmp	r3, r5
 80040bc:	d865      	bhi.n	800418a <HAL_RCC_ClockConfig+0xfe>
 80040be:	6822      	ldr	r2, [r4, #0]
 80040c0:	4d3c      	ldr	r5, [pc, #240]	@ (80041b4 <HAL_RCC_ClockConfig+0x128>)
 80040c2:	f012 0f04 	tst.w	r2, #4
 80040c6:	d16c      	bne.n	80041a2 <HAL_RCC_ClockConfig+0x116>
 80040c8:	0713      	lsls	r3, r2, #28
 80040ca:	d506      	bpl.n	80040da <HAL_RCC_ClockConfig+0x4e>
 80040cc:	686b      	ldr	r3, [r5, #4]
 80040ce:	6922      	ldr	r2, [r4, #16]
 80040d0:	f423 5360 	bic.w	r3, r3, #14336	@ 0x3800
 80040d4:	ea43 03c2 	orr.w	r3, r3, r2, lsl #3
 80040d8:	606b      	str	r3, [r5, #4]
 80040da:	f7ff ffb1 	bl	8004040 <HAL_RCC_GetSysClockFreq>
 80040de:	686b      	ldr	r3, [r5, #4]
 80040e0:	4a35      	ldr	r2, [pc, #212]	@ (80041b8 <HAL_RCC_ClockConfig+0x12c>)
 80040e2:	f3c3 1303 	ubfx	r3, r3, #4, #4
 80040e6:	5cd3      	ldrb	r3, [r2, r3]
 80040e8:	40d8      	lsrs	r0, r3
 80040ea:	4b34      	ldr	r3, [pc, #208]	@ (80041bc <HAL_RCC_ClockConfig+0x130>)
 80040ec:	6018      	str	r0, [r3, #0]
 80040ee:	4b34      	ldr	r3, [pc, #208]	@ (80041c0 <HAL_RCC_ClockConfig+0x134>)
 80040f0:	6818      	ldr	r0, [r3, #0]
 80040f2:	f7fe f9e5 	bl	80024c0 <HAL_InitTick>
 80040f6:	2000      	movs	r0, #0
 80040f8:	e7ce      	b.n	8004098 <HAL_RCC_ClockConfig+0xc>
 80040fa:	6813      	ldr	r3, [r2, #0]
 80040fc:	f023 0307 	bic.w	r3, r3, #7
 8004100:	430b      	orrs	r3, r1
 8004102:	6013      	str	r3, [r2, #0]
 8004104:	6813      	ldr	r3, [r2, #0]
 8004106:	f003 0307 	and.w	r3, r3, #7
 800410a:	428b      	cmp	r3, r1
 800410c:	d1c3      	bne.n	8004096 <HAL_RCC_ClockConfig+0xa>
 800410e:	e7cb      	b.n	80040a8 <HAL_RCC_ClockConfig+0x1c>
 8004110:	4b28      	ldr	r3, [pc, #160]	@ (80041b4 <HAL_RCC_ClockConfig+0x128>)
 8004112:	f011 0f04 	tst.w	r1, #4
 8004116:	bf1e      	ittt	ne
 8004118:	685a      	ldrne	r2, [r3, #4]
 800411a:	f442 62e0 	orrne.w	r2, r2, #1792	@ 0x700
 800411e:	605a      	strne	r2, [r3, #4]
 8004120:	0708      	lsls	r0, r1, #28
 8004122:	bf42      	ittt	mi
 8004124:	685a      	ldrmi	r2, [r3, #4]
 8004126:	f442 5260 	orrmi.w	r2, r2, #14336	@ 0x3800
 800412a:	605a      	strmi	r2, [r3, #4]
 800412c:	685a      	ldr	r2, [r3, #4]
 800412e:	68a0      	ldr	r0, [r4, #8]
 8004130:	f022 02f0 	bic.w	r2, r2, #240	@ 0xf0
 8004134:	4302      	orrs	r2, r0
 8004136:	605a      	str	r2, [r3, #4]
 8004138:	e7b9      	b.n	80040ae <HAL_RCC_ClockConfig+0x22>
 800413a:	6862      	ldr	r2, [r4, #4]
 800413c:	4e1d      	ldr	r6, [pc, #116]	@ (80041b4 <HAL_RCC_ClockConfig+0x128>)
 800413e:	2a01      	cmp	r2, #1
 8004140:	6833      	ldr	r3, [r6, #0]
 8004142:	d11a      	bne.n	800417a <HAL_RCC_ClockConfig+0xee>
 8004144:	f413 3f00 	tst.w	r3, #131072	@ 0x20000
 8004148:	d0a5      	beq.n	8004096 <HAL_RCC_ClockConfig+0xa>
 800414a:	6873      	ldr	r3, [r6, #4]
 800414c:	f241 3888 	movw	r8, #5000	@ 0x1388
 8004150:	f023 0303 	bic.w	r3, r3, #3
 8004154:	4313      	orrs	r3, r2
 8004156:	6073      	str	r3, [r6, #4]
 8004158:	f7fe f9f4 	bl	8002544 <HAL_GetTick>
 800415c:	4607      	mov	r7, r0
 800415e:	6873      	ldr	r3, [r6, #4]
 8004160:	6862      	ldr	r2, [r4, #4]
 8004162:	f003 030c 	and.w	r3, r3, #12
 8004166:	ebb3 0f82 	cmp.w	r3, r2, lsl #2
 800416a:	d0a2      	beq.n	80040b2 <HAL_RCC_ClockConfig+0x26>
 800416c:	f7fe f9ea 	bl	8002544 <HAL_GetTick>
 8004170:	1bc0      	subs	r0, r0, r7
 8004172:	4540      	cmp	r0, r8
 8004174:	d9f3      	bls.n	800415e <HAL_RCC_ClockConfig+0xd2>
 8004176:	2003      	movs	r0, #3
 8004178:	e78e      	b.n	8004098 <HAL_RCC_ClockConfig+0xc>
 800417a:	2a02      	cmp	r2, #2
 800417c:	d102      	bne.n	8004184 <HAL_RCC_ClockConfig+0xf8>
 800417e:	f013 7f00 	tst.w	r3, #33554432	@ 0x2000000
 8004182:	e7e1      	b.n	8004148 <HAL_RCC_ClockConfig+0xbc>
 8004184:	f013 0f02 	tst.w	r3, #2
 8004188:	e7de      	b.n	8004148 <HAL_RCC_ClockConfig+0xbc>
 800418a:	6813      	ldr	r3, [r2, #0]
 800418c:	f023 0307 	bic.w	r3, r3, #7
 8004190:	432b      	orrs	r3, r5
 8004192:	6013      	str	r3, [r2, #0]
 8004194:	6813      	ldr	r3, [r2, #0]
 8004196:	f003 0307 	and.w	r3, r3, #7
 800419a:	42ab      	cmp	r3, r5
 800419c:	f47f af7b 	bne.w	8004096 <HAL_RCC_ClockConfig+0xa>
 80041a0:	e78d      	b.n	80040be <HAL_RCC_ClockConfig+0x32>
 80041a2:	686b      	ldr	r3, [r5, #4]
 80041a4:	68e1      	ldr	r1, [r4, #12]
 80041a6:	f423 63e0 	bic.w	r3, r3, #1792	@ 0x700
 80041aa:	430b      	orrs	r3, r1
 80041ac:	606b      	str	r3, [r5, #4]
 80041ae:	e78b      	b.n	80040c8 <HAL_RCC_ClockConfig+0x3c>
 80041b0:	40022000 	.word	0x40022000
 80041b4:	40021000 	.word	0x40021000
 80041b8:	080057a2 	.word	0x080057a2
 80041bc:	2000000c 	.word	0x2000000c
 80041c0:	20000014 	.word	0x20000014

080041c4 <HAL_RCC_GetPCLK1Freq>:
 80041c4:	4b04      	ldr	r3, [pc, #16]	@ (80041d8 <HAL_RCC_GetPCLK1Freq+0x14>)
 80041c6:	4a05      	ldr	r2, [pc, #20]	@ (80041dc <HAL_RCC_GetPCLK1Freq+0x18>)
 80041c8:	685b      	ldr	r3, [r3, #4]
 80041ca:	f3c3 2302 	ubfx	r3, r3, #8, #3
 80041ce:	5cd3      	ldrb	r3, [r2, r3]
 80041d0:	4a03      	ldr	r2, [pc, #12]	@ (80041e0 <HAL_RCC_GetPCLK1Freq+0x1c>)
 80041d2:	6810      	ldr	r0, [r2, #0]
 80041d4:	40d8      	lsrs	r0, r3
 80041d6:	4770      	bx	lr
 80041d8:	40021000 	.word	0x40021000
 80041dc:	0800579a 	.word	0x0800579a
 80041e0:	2000000c 	.word	0x2000000c

080041e4 <HAL_RCC_GetPCLK2Freq>:
 80041e4:	4b04      	ldr	r3, [pc, #16]	@ (80041f8 <HAL_RCC_GetPCLK2Freq+0x14>)
 80041e6:	4a05      	ldr	r2, [pc, #20]	@ (80041fc <HAL_RCC_GetPCLK2Freq+0x18>)
 80041e8:	685b      	ldr	r3, [r3, #4]
 80041ea:	f3c3 23c2 	ubfx	r3, r3, #11, #3
 80041ee:	5cd3      	ldrb	r3, [r2, r3]
 80041f0:	4a03      	ldr	r2, [pc, #12]	@ (8004200 <HAL_RCC_GetPCLK2Freq+0x1c>)
 80041f2:	6810      	ldr	r0, [r2, #0]
 80041f4:	40d8      	lsrs	r0, r3
 80041f6:	4770      	bx	lr
 80041f8:	40021000 	.word	0x40021000
 80041fc:	0800579a 	.word	0x0800579a
 8004200:	2000000c 	.word	0x2000000c

08004204 <UART_EndRxTransfer>:
 8004204:	6802      	ldr	r2, [r0, #0]
 8004206:	f102 030c 	add.w	r3, r2, #12
 800420a:	e853 3f00 	ldrex	r3, [r3]
 800420e:	f423 7390 	bic.w	r3, r3, #288	@ 0x120
 8004212:	320c      	adds	r2, #12
 8004214:	e842 3100 	strex	r1, r3, [r2]
 8004218:	6802      	ldr	r2, [r0, #0]
 800421a:	2900      	cmp	r1, #0
 800421c:	d1f2      	bne.n	8004204 <UART_EndRxTransfer>
 800421e:	f102 0314 	add.w	r3, r2, #20
 8004222:	e853 3f00 	ldrex	r3, [r3]
 8004226:	f023 0301 	bic.w	r3, r3, #1
 800422a:	f102 0c14 	add.w	ip, r2, #20
 800422e:	e84c 3100 	strex	r1, r3, [ip]
 8004232:	2900      	cmp	r1, #0
 8004234:	d1f3      	bne.n	800421e <UART_EndRxTransfer+0x1a>
 8004236:	6b03      	ldr	r3, [r0, #48]	@ 0x30
 8004238:	2b01      	cmp	r3, #1
 800423a:	d10b      	bne.n	8004254 <UART_EndRxTransfer+0x50>
 800423c:	f102 030c 	add.w	r3, r2, #12
 8004240:	e853 3f00 	ldrex	r3, [r3]
 8004244:	f023 0310 	bic.w	r3, r3, #16
 8004248:	f102 0c0c 	add.w	ip, r2, #12
 800424c:	e84c 3100 	strex	r1, r3, [ip]
 8004250:	2900      	cmp	r1, #0
 8004252:	d1f3      	bne.n	800423c <UART_EndRxTransfer+0x38>
 8004254:	2320      	movs	r3, #32
 8004256:	f880 3042 	strb.w	r3, [r0, #66]	@ 0x42
 800425a:	2300      	movs	r3, #0
 800425c:	6303      	str	r3, [r0, #48]	@ 0x30
 800425e:	4770      	bx	lr

08004260 <UART_SetConfig>:
 8004260:	b510      	push	{r4, lr}
 8004262:	4604      	mov	r4, r0
 8004264:	6803      	ldr	r3, [r0, #0]
 8004266:	68c1      	ldr	r1, [r0, #12]
 8004268:	691a      	ldr	r2, [r3, #16]
 800426a:	f422 5240 	bic.w	r2, r2, #12288	@ 0x3000
 800426e:	430a      	orrs	r2, r1
 8004270:	611a      	str	r2, [r3, #16]
 8004272:	6882      	ldr	r2, [r0, #8]
 8004274:	6900      	ldr	r0, [r0, #16]
 8004276:	68d9      	ldr	r1, [r3, #12]
 8004278:	4302      	orrs	r2, r0
 800427a:	6960      	ldr	r0, [r4, #20]
 800427c:	f421 51b0 	bic.w	r1, r1, #5632	@ 0x1600
 8004280:	f021 010c 	bic.w	r1, r1, #12
 8004284:	4302      	orrs	r2, r0
 8004286:	430a      	orrs	r2, r1
 8004288:	60da      	str	r2, [r3, #12]
 800428a:	695a      	ldr	r2, [r3, #20]
 800428c:	69a1      	ldr	r1, [r4, #24]
 800428e:	f422 7240 	bic.w	r2, r2, #768	@ 0x300
 8004292:	430a      	orrs	r2, r1
 8004294:	615a      	str	r2, [r3, #20]
 8004296:	4a0e      	ldr	r2, [pc, #56]	@ (80042d0 <UART_SetConfig+0x70>)
 8004298:	4293      	cmp	r3, r2
 800429a:	d115      	bne.n	80042c8 <UART_SetConfig+0x68>
 800429c:	f7ff ffa2 	bl	80041e4 <HAL_RCC_GetPCLK2Freq>
 80042a0:	2319      	movs	r3, #25
 80042a2:	4343      	muls	r3, r0
 80042a4:	6862      	ldr	r2, [r4, #4]
 80042a6:	6820      	ldr	r0, [r4, #0]
 80042a8:	0092      	lsls	r2, r2, #2
 80042aa:	fbb3 f3f2 	udiv	r3, r3, r2
 80042ae:	2264      	movs	r2, #100	@ 0x64
 80042b0:	fbb3 f1f2 	udiv	r1, r3, r2
 80042b4:	fb02 3311 	mls	r3, r2, r1, r3
 80042b8:	011b      	lsls	r3, r3, #4
 80042ba:	3332      	adds	r3, #50	@ 0x32
 80042bc:	fbb3 f3f2 	udiv	r3, r3, r2
 80042c0:	eb03 1301 	add.w	r3, r3, r1, lsl #4
 80042c4:	6083      	str	r3, [r0, #8]
 80042c6:	bd10      	pop	{r4, pc}
 80042c8:	f7ff ff7c 	bl	80041c4 <HAL_RCC_GetPCLK1Freq>
 80042cc:	e7e8      	b.n	80042a0 <UART_SetConfig+0x40>
 80042ce:	bf00      	nop
 80042d0:	40013800 	.word	0x40013800

080042d4 <UART_WaitOnFlagUntilTimeout.constprop.0>:
 80042d4:	b5f7      	push	{r0, r1, r2, r4, r5, r6, r7, lr}
 80042d6:	4605      	mov	r5, r0
 80042d8:	460c      	mov	r4, r1
 80042da:	4617      	mov	r7, r2
 80042dc:	461e      	mov	r6, r3
 80042de:	682a      	ldr	r2, [r5, #0]
 80042e0:	6813      	ldr	r3, [r2, #0]
 80042e2:	ea34 0303 	bics.w	r3, r4, r3
 80042e6:	d101      	bne.n	80042ec <UART_WaitOnFlagUntilTimeout.constprop.0+0x18>
 80042e8:	2000      	movs	r0, #0
 80042ea:	e021      	b.n	8004330 <UART_WaitOnFlagUntilTimeout.constprop.0+0x5c>
 80042ec:	1c70      	adds	r0, r6, #1
 80042ee:	d0f7      	beq.n	80042e0 <UART_WaitOnFlagUntilTimeout.constprop.0+0xc>
 80042f0:	f7fe f928 	bl	8002544 <HAL_GetTick>
 80042f4:	1bc0      	subs	r0, r0, r7
 80042f6:	4286      	cmp	r6, r0
 80042f8:	d31c      	bcc.n	8004334 <UART_WaitOnFlagUntilTimeout.constprop.0+0x60>
 80042fa:	b1de      	cbz	r6, 8004334 <UART_WaitOnFlagUntilTimeout.constprop.0+0x60>
 80042fc:	682b      	ldr	r3, [r5, #0]
 80042fe:	68da      	ldr	r2, [r3, #12]
 8004300:	0751      	lsls	r1, r2, #29
 8004302:	d5ec      	bpl.n	80042de <UART_WaitOnFlagUntilTimeout.constprop.0+0xa>
 8004304:	2c80      	cmp	r4, #128	@ 0x80
 8004306:	d0ea      	beq.n	80042de <UART_WaitOnFlagUntilTimeout.constprop.0+0xa>
 8004308:	2c40      	cmp	r4, #64	@ 0x40
 800430a:	d0e8      	beq.n	80042de <UART_WaitOnFlagUntilTimeout.constprop.0+0xa>
 800430c:	681a      	ldr	r2, [r3, #0]
 800430e:	0712      	lsls	r2, r2, #28
 8004310:	d5e5      	bpl.n	80042de <UART_WaitOnFlagUntilTimeout.constprop.0+0xa>
 8004312:	2400      	movs	r4, #0
 8004314:	9401      	str	r4, [sp, #4]
 8004316:	681a      	ldr	r2, [r3, #0]
 8004318:	4628      	mov	r0, r5
 800431a:	9201      	str	r2, [sp, #4]
 800431c:	685b      	ldr	r3, [r3, #4]
 800431e:	9301      	str	r3, [sp, #4]
 8004320:	9b01      	ldr	r3, [sp, #4]
 8004322:	f7ff ff6f 	bl	8004204 <UART_EndRxTransfer>
 8004326:	2308      	movs	r3, #8
 8004328:	2001      	movs	r0, #1
 800432a:	646b      	str	r3, [r5, #68]	@ 0x44
 800432c:	f885 4040 	strb.w	r4, [r5, #64]	@ 0x40
 8004330:	b003      	add	sp, #12
 8004332:	bdf0      	pop	{r4, r5, r6, r7, pc}
 8004334:	2003      	movs	r0, #3
 8004336:	e7fb      	b.n	8004330 <UART_WaitOnFlagUntilTimeout.constprop.0+0x5c>

08004338 <HAL_UART_Init>:
 8004338:	b510      	push	{r4, lr}
 800433a:	4604      	mov	r4, r0
 800433c:	b348      	cbz	r0, 8004392 <HAL_UART_Init+0x5a>
 800433e:	f890 3041 	ldrb.w	r3, [r0, #65]	@ 0x41
 8004342:	f003 02ff 	and.w	r2, r3, #255	@ 0xff
 8004346:	b91b      	cbnz	r3, 8004350 <HAL_UART_Init+0x18>
 8004348:	f880 2040 	strb.w	r2, [r0, #64]	@ 0x40
 800434c:	f7fd ffba 	bl	80022c4 <HAL_UART_MspInit>
 8004350:	2324      	movs	r3, #36	@ 0x24
 8004352:	6822      	ldr	r2, [r4, #0]
 8004354:	f884 3041 	strb.w	r3, [r4, #65]	@ 0x41
 8004358:	68d3      	ldr	r3, [r2, #12]
 800435a:	4620      	mov	r0, r4
 800435c:	f423 5300 	bic.w	r3, r3, #8192	@ 0x2000
 8004360:	60d3      	str	r3, [r2, #12]
 8004362:	f7ff ff7d 	bl	8004260 <UART_SetConfig>
 8004366:	6823      	ldr	r3, [r4, #0]
 8004368:	2000      	movs	r0, #0
 800436a:	691a      	ldr	r2, [r3, #16]
 800436c:	f422 4290 	bic.w	r2, r2, #18432	@ 0x4800
 8004370:	611a      	str	r2, [r3, #16]
 8004372:	695a      	ldr	r2, [r3, #20]
 8004374:	f022 022a 	bic.w	r2, r2, #42	@ 0x2a
 8004378:	615a      	str	r2, [r3, #20]
 800437a:	68da      	ldr	r2, [r3, #12]
 800437c:	f442 5200 	orr.w	r2, r2, #8192	@ 0x2000
 8004380:	60da      	str	r2, [r3, #12]
 8004382:	2320      	movs	r3, #32
 8004384:	6460      	str	r0, [r4, #68]	@ 0x44
 8004386:	f884 3041 	strb.w	r3, [r4, #65]	@ 0x41
 800438a:	f884 3042 	strb.w	r3, [r4, #66]	@ 0x42
 800438e:	6360      	str	r0, [r4, #52]	@ 0x34
 8004390:	bd10      	pop	{r4, pc}
 8004392:	2001      	movs	r0, #1
 8004394:	e7fc      	b.n	8004390 <HAL_UART_Init+0x58>

08004396 <HAL_UART_Transmit>:
 8004396:	e92d 43f8 	stmdb	sp!, {r3, r4, r5, r6, r7, r8, r9, lr}
 800439a:	4698      	mov	r8, r3
 800439c:	f890 3041 	ldrb.w	r3, [r0, #65]	@ 0x41
 80043a0:	4604      	mov	r4, r0
 80043a2:	2b20      	cmp	r3, #32
 80043a4:	460e      	mov	r6, r1
 80043a6:	4617      	mov	r7, r2
 80043a8:	d13f      	bne.n	800442a <HAL_UART_Transmit+0x94>
 80043aa:	2900      	cmp	r1, #0
 80043ac:	d03f      	beq.n	800442e <HAL_UART_Transmit+0x98>
 80043ae:	2a00      	cmp	r2, #0
 80043b0:	d03d      	beq.n	800442e <HAL_UART_Transmit+0x98>
 80043b2:	2321      	movs	r3, #33	@ 0x21
 80043b4:	2500      	movs	r5, #0
 80043b6:	6445      	str	r5, [r0, #68]	@ 0x44
 80043b8:	f880 3041 	strb.w	r3, [r0, #65]	@ 0x41
 80043bc:	f7fe f8c2 	bl	8002544 <HAL_GetTick>
 80043c0:	68a3      	ldr	r3, [r4, #8]
 80043c2:	4681      	mov	r9, r0
 80043c4:	f5b3 5f80 	cmp.w	r3, #4096	@ 0x1000
 80043c8:	84a7      	strh	r7, [r4, #36]	@ 0x24
 80043ca:	84e7      	strh	r7, [r4, #38]	@ 0x26
 80043cc:	d103      	bne.n	80043d6 <HAL_UART_Transmit+0x40>
 80043ce:	6923      	ldr	r3, [r4, #16]
 80043d0:	b90b      	cbnz	r3, 80043d6 <HAL_UART_Transmit+0x40>
 80043d2:	4635      	mov	r5, r6
 80043d4:	461e      	mov	r6, r3
 80043d6:	8ce3      	ldrh	r3, [r4, #38]	@ 0x26
 80043d8:	b29b      	uxth	r3, r3
 80043da:	b953      	cbnz	r3, 80043f2 <HAL_UART_Transmit+0x5c>
 80043dc:	4643      	mov	r3, r8
 80043de:	464a      	mov	r2, r9
 80043e0:	2140      	movs	r1, #64	@ 0x40
 80043e2:	4620      	mov	r0, r4
 80043e4:	f7ff ff76 	bl	80042d4 <UART_WaitOnFlagUntilTimeout.constprop.0>
 80043e8:	2320      	movs	r3, #32
 80043ea:	b950      	cbnz	r0, 8004402 <HAL_UART_Transmit+0x6c>
 80043ec:	f884 3041 	strb.w	r3, [r4, #65]	@ 0x41
 80043f0:	e00a      	b.n	8004408 <HAL_UART_Transmit+0x72>
 80043f2:	4643      	mov	r3, r8
 80043f4:	464a      	mov	r2, r9
 80043f6:	2180      	movs	r1, #128	@ 0x80
 80043f8:	4620      	mov	r0, r4
 80043fa:	f7ff ff6b 	bl	80042d4 <UART_WaitOnFlagUntilTimeout.constprop.0>
 80043fe:	b128      	cbz	r0, 800440c <HAL_UART_Transmit+0x76>
 8004400:	2320      	movs	r3, #32
 8004402:	2003      	movs	r0, #3
 8004404:	f884 3041 	strb.w	r3, [r4, #65]	@ 0x41
 8004408:	e8bd 83f8 	ldmia.w	sp!, {r3, r4, r5, r6, r7, r8, r9, pc}
 800440c:	6822      	ldr	r2, [r4, #0]
 800440e:	b94e      	cbnz	r6, 8004424 <HAL_UART_Transmit+0x8e>
 8004410:	f835 3b02 	ldrh.w	r3, [r5], #2
 8004414:	f3c3 0308 	ubfx	r3, r3, #0, #9
 8004418:	6053      	str	r3, [r2, #4]
 800441a:	8ce1      	ldrh	r1, [r4, #38]	@ 0x26
 800441c:	3901      	subs	r1, #1
 800441e:	b289      	uxth	r1, r1
 8004420:	84e1      	strh	r1, [r4, #38]	@ 0x26
 8004422:	e7d8      	b.n	80043d6 <HAL_UART_Transmit+0x40>
 8004424:	f816 3b01 	ldrb.w	r3, [r6], #1
 8004428:	e7f6      	b.n	8004418 <HAL_UART_Transmit+0x82>
 800442a:	2002      	movs	r0, #2
 800442c:	e7ec      	b.n	8004408 <HAL_UART_Transmit+0x72>
 800442e:	2001      	movs	r0, #1
 8004430:	e7ea      	b.n	8004408 <HAL_UART_Transmit+0x72>

08004432 <HAL_UART_Receive>:
 8004432:	e92d 43f8 	stmdb	sp!, {r3, r4, r5, r6, r7, r8, r9, lr}
 8004436:	461f      	mov	r7, r3
 8004438:	f890 3042 	ldrb.w	r3, [r0, #66]	@ 0x42
 800443c:	4604      	mov	r4, r0
 800443e:	2b20      	cmp	r3, #32
 8004440:	460e      	mov	r6, r1
 8004442:	4691      	mov	r9, r2
 8004444:	d148      	bne.n	80044d8 <HAL_UART_Receive+0xa6>
 8004446:	2900      	cmp	r1, #0
 8004448:	d048      	beq.n	80044dc <HAL_UART_Receive+0xaa>
 800444a:	2a00      	cmp	r2, #0
 800444c:	d046      	beq.n	80044dc <HAL_UART_Receive+0xaa>
 800444e:	2322      	movs	r3, #34	@ 0x22
 8004450:	2500      	movs	r5, #0
 8004452:	6445      	str	r5, [r0, #68]	@ 0x44
 8004454:	f880 3042 	strb.w	r3, [r0, #66]	@ 0x42
 8004458:	6305      	str	r5, [r0, #48]	@ 0x30
 800445a:	f7fe f873 	bl	8002544 <HAL_GetTick>
 800445e:	68a3      	ldr	r3, [r4, #8]
 8004460:	4680      	mov	r8, r0
 8004462:	f5b3 5f80 	cmp.w	r3, #4096	@ 0x1000
 8004466:	f8a4 902c 	strh.w	r9, [r4, #44]	@ 0x2c
 800446a:	f8a4 902e 	strh.w	r9, [r4, #46]	@ 0x2e
 800446e:	d103      	bne.n	8004478 <HAL_UART_Receive+0x46>
 8004470:	6923      	ldr	r3, [r4, #16]
 8004472:	b90b      	cbnz	r3, 8004478 <HAL_UART_Receive+0x46>
 8004474:	4635      	mov	r5, r6
 8004476:	461e      	mov	r6, r3
 8004478:	8de0      	ldrh	r0, [r4, #46]	@ 0x2e
 800447a:	b280      	uxth	r0, r0
 800447c:	b918      	cbnz	r0, 8004486 <HAL_UART_Receive+0x54>
 800447e:	2320      	movs	r3, #32
 8004480:	f884 3042 	strb.w	r3, [r4, #66]	@ 0x42
 8004484:	e00a      	b.n	800449c <HAL_UART_Receive+0x6a>
 8004486:	463b      	mov	r3, r7
 8004488:	4642      	mov	r2, r8
 800448a:	2120      	movs	r1, #32
 800448c:	4620      	mov	r0, r4
 800448e:	f7ff ff21 	bl	80042d4 <UART_WaitOnFlagUntilTimeout.constprop.0>
 8004492:	b128      	cbz	r0, 80044a0 <HAL_UART_Receive+0x6e>
 8004494:	2320      	movs	r3, #32
 8004496:	2003      	movs	r0, #3
 8004498:	f884 3042 	strb.w	r3, [r4, #66]	@ 0x42
 800449c:	e8bd 83f8 	ldmia.w	sp!, {r3, r4, r5, r6, r7, r8, r9, pc}
 80044a0:	6823      	ldr	r3, [r4, #0]
 80044a2:	b94e      	cbnz	r6, 80044b8 <HAL_UART_Receive+0x86>
 80044a4:	685b      	ldr	r3, [r3, #4]
 80044a6:	f3c3 0308 	ubfx	r3, r3, #0, #9
 80044aa:	f825 3b02 	strh.w	r3, [r5], #2
 80044ae:	8de3      	ldrh	r3, [r4, #46]	@ 0x2e
 80044b0:	3b01      	subs	r3, #1
 80044b2:	b29b      	uxth	r3, r3
 80044b4:	85e3      	strh	r3, [r4, #46]	@ 0x2e
 80044b6:	e7df      	b.n	8004478 <HAL_UART_Receive+0x46>
 80044b8:	68a2      	ldr	r2, [r4, #8]
 80044ba:	f5b2 5f80 	cmp.w	r2, #4096	@ 0x1000
 80044be:	d002      	beq.n	80044c6 <HAL_UART_Receive+0x94>
 80044c0:	b932      	cbnz	r2, 80044d0 <HAL_UART_Receive+0x9e>
 80044c2:	6922      	ldr	r2, [r4, #16]
 80044c4:	b922      	cbnz	r2, 80044d0 <HAL_UART_Receive+0x9e>
 80044c6:	6859      	ldr	r1, [r3, #4]
 80044c8:	b2c9      	uxtb	r1, r1
 80044ca:	f806 1b01 	strb.w	r1, [r6], #1
 80044ce:	e7ee      	b.n	80044ae <HAL_UART_Receive+0x7c>
 80044d0:	6859      	ldr	r1, [r3, #4]
 80044d2:	f001 017f 	and.w	r1, r1, #127	@ 0x7f
 80044d6:	e7f8      	b.n	80044ca <HAL_UART_Receive+0x98>
 80044d8:	2002      	movs	r0, #2
 80044da:	e7df      	b.n	800449c <HAL_UART_Receive+0x6a>
 80044dc:	2001      	movs	r0, #1
 80044de:	e7dd      	b.n	800449c <HAL_UART_Receive+0x6a>

080044e0 <HAL_UART_Abort>:
 80044e0:	b510      	push	{r4, lr}
 80044e2:	4604      	mov	r4, r0
 80044e4:	6822      	ldr	r2, [r4, #0]
 80044e6:	f102 030c 	add.w	r3, r2, #12
 80044ea:	e853 3f00 	ldrex	r3, [r3]
 80044ee:	f423 73f0 	bic.w	r3, r3, #480	@ 0x1e0
 80044f2:	320c      	adds	r2, #12
 80044f4:	e842 3100 	strex	r1, r3, [r2]
 80044f8:	6823      	ldr	r3, [r4, #0]
 80044fa:	2900      	cmp	r1, #0
 80044fc:	d1f2      	bne.n	80044e4 <HAL_UART_Abort+0x4>
 80044fe:	f103 0214 	add.w	r2, r3, #20
 8004502:	e852 2f00 	ldrex	r2, [r2]
 8004506:	f022 0201 	bic.w	r2, r2, #1
 800450a:	f103 0014 	add.w	r0, r3, #20
 800450e:	e840 2100 	strex	r1, r2, [r0]
 8004512:	2900      	cmp	r1, #0
 8004514:	d1f3      	bne.n	80044fe <HAL_UART_Abort+0x1e>
 8004516:	6b22      	ldr	r2, [r4, #48]	@ 0x30
 8004518:	2a01      	cmp	r2, #1
 800451a:	d10b      	bne.n	8004534 <HAL_UART_Abort+0x54>
 800451c:	f103 020c 	add.w	r2, r3, #12
 8004520:	e852 2f00 	ldrex	r2, [r2]
 8004524:	f022 0210 	bic.w	r2, r2, #16
 8004528:	f103 000c 	add.w	r0, r3, #12
 800452c:	e840 2100 	strex	r1, r2, [r0]
 8004530:	2900      	cmp	r1, #0
 8004532:	d1f3      	bne.n	800451c <HAL_UART_Abort+0x3c>
 8004534:	695a      	ldr	r2, [r3, #20]
 8004536:	0612      	lsls	r2, r2, #24
 8004538:	d51a      	bpl.n	8004570 <HAL_UART_Abort+0x90>
 800453a:	f103 0214 	add.w	r2, r3, #20
 800453e:	e852 2f00 	ldrex	r2, [r2]
 8004542:	f022 0280 	bic.w	r2, r2, #128	@ 0x80
 8004546:	f103 0014 	add.w	r0, r3, #20
 800454a:	e840 2100 	strex	r1, r2, [r0]
 800454e:	2900      	cmp	r1, #0
 8004550:	d1f3      	bne.n	800453a <HAL_UART_Abort+0x5a>
 8004552:	6ba0      	ldr	r0, [r4, #56]	@ 0x38
 8004554:	b160      	cbz	r0, 8004570 <HAL_UART_Abort+0x90>
 8004556:	6341      	str	r1, [r0, #52]	@ 0x34
 8004558:	f7fe f870 	bl	800263c <HAL_DMA_Abort>
 800455c:	b140      	cbz	r0, 8004570 <HAL_UART_Abort+0x90>
 800455e:	6ba0      	ldr	r0, [r4, #56]	@ 0x38
 8004560:	f7fe f8d5 	bl	800270e <HAL_DMA_GetError>
 8004564:	2820      	cmp	r0, #32
 8004566:	d103      	bne.n	8004570 <HAL_UART_Abort+0x90>
 8004568:	2310      	movs	r3, #16
 800456a:	2003      	movs	r0, #3
 800456c:	6463      	str	r3, [r4, #68]	@ 0x44
 800456e:	bd10      	pop	{r4, pc}
 8004570:	6822      	ldr	r2, [r4, #0]
 8004572:	6953      	ldr	r3, [r2, #20]
 8004574:	065b      	lsls	r3, r3, #25
 8004576:	d516      	bpl.n	80045a6 <HAL_UART_Abort+0xc6>
 8004578:	f102 0314 	add.w	r3, r2, #20
 800457c:	e853 3f00 	ldrex	r3, [r3]
 8004580:	f023 0340 	bic.w	r3, r3, #64	@ 0x40
 8004584:	f102 0014 	add.w	r0, r2, #20
 8004588:	e840 3100 	strex	r1, r3, [r0]
 800458c:	2900      	cmp	r1, #0
 800458e:	d1f3      	bne.n	8004578 <HAL_UART_Abort+0x98>
 8004590:	6be0      	ldr	r0, [r4, #60]	@ 0x3c
 8004592:	b140      	cbz	r0, 80045a6 <HAL_UART_Abort+0xc6>
 8004594:	6341      	str	r1, [r0, #52]	@ 0x34
 8004596:	f7fe f851 	bl	800263c <HAL_DMA_Abort>
 800459a:	b120      	cbz	r0, 80045a6 <HAL_UART_Abort+0xc6>
 800459c:	6be0      	ldr	r0, [r4, #60]	@ 0x3c
 800459e:	f7fe f8b6 	bl	800270e <HAL_DMA_GetError>
 80045a2:	2820      	cmp	r0, #32
 80045a4:	d0e0      	beq.n	8004568 <HAL_UART_Abort+0x88>
 80045a6:	2000      	movs	r0, #0
 80045a8:	2320      	movs	r3, #32
 80045aa:	84e0      	strh	r0, [r4, #38]	@ 0x26
 80045ac:	85e0      	strh	r0, [r4, #46]	@ 0x2e
 80045ae:	6460      	str	r0, [r4, #68]	@ 0x44
 80045b0:	f884 3042 	strb.w	r3, [r4, #66]	@ 0x42
 80045b4:	f884 3041 	strb.w	r3, [r4, #65]	@ 0x41
 80045b8:	6320      	str	r0, [r4, #48]	@ 0x30
 80045ba:	e7d8      	b.n	800456e <HAL_UART_Abort+0x8e>

080045bc <HAL_UART_TxCpltCallback>:
 80045bc:	4770      	bx	lr

080045be <UART_DMAAbortOnError>:
 80045be:	b508      	push	{r3, lr}
 80045c0:	2300      	movs	r3, #0
 80045c2:	6a40      	ldr	r0, [r0, #36]	@ 0x24
 80045c4:	85c3      	strh	r3, [r0, #46]	@ 0x2e
 80045c6:	84c3      	strh	r3, [r0, #38]	@ 0x26
 80045c8:	f7fd f864 	bl	8001694 <HAL_UART_ErrorCallback>
 80045cc:	bd08      	pop	{r3, pc}

080045ce <HAL_UART_AbortReceiveCpltCallback>:
 80045ce:	4770      	bx	lr

080045d0 <HAL_UART_AbortReceive_IT>:
 80045d0:	b510      	push	{r4, lr}
 80045d2:	4604      	mov	r4, r0
 80045d4:	6822      	ldr	r2, [r4, #0]
 80045d6:	f102 030c 	add.w	r3, r2, #12
 80045da:	e853 3f00 	ldrex	r3, [r3]
 80045de:	f423 7390 	bic.w	r3, r3, #288	@ 0x120
 80045e2:	320c      	adds	r2, #12
 80045e4:	e842 3100 	strex	r1, r3, [r2]
 80045e8:	6823      	ldr	r3, [r4, #0]
 80045ea:	2900      	cmp	r1, #0
 80045ec:	d1f2      	bne.n	80045d4 <HAL_UART_AbortReceive_IT+0x4>
 80045ee:	f103 0214 	add.w	r2, r3, #20
 80045f2:	e852 2f00 	ldrex	r2, [r2]
 80045f6:	f022 0201 	bic.w	r2, r2, #1
 80045fa:	f103 0014 	add.w	r0, r3, #20
 80045fe:	e840 2100 	strex	r1, r2, [r0]
 8004602:	2900      	cmp	r1, #0
 8004604:	d1f3      	bne.n	80045ee <HAL_UART_AbortReceive_IT+0x1e>
 8004606:	6b22      	ldr	r2, [r4, #48]	@ 0x30
 8004608:	2a01      	cmp	r2, #1
 800460a:	d10b      	bne.n	8004624 <HAL_UART_AbortReceive_IT+0x54>
 800460c:	f103 020c 	add.w	r2, r3, #12
 8004610:	e852 2f00 	ldrex	r2, [r2]
 8004614:	f022 0210 	bic.w	r2, r2, #16
 8004618:	f103 000c 	add.w	r0, r3, #12
 800461c:	e840 2100 	strex	r1, r2, [r0]
 8004620:	2900      	cmp	r1, #0
 8004622:	d1f3      	bne.n	800460c <HAL_UART_AbortReceive_IT+0x3c>
 8004624:	695a      	ldr	r2, [r3, #20]
 8004626:	f012 0240 	ands.w	r2, r2, #64	@ 0x40
 800462a:	d020      	beq.n	800466e <HAL_UART_AbortReceive_IT+0x9e>
 800462c:	f103 0214 	add.w	r2, r3, #20
 8004630:	e852 2f00 	ldrex	r2, [r2]
 8004634:	f022 0240 	bic.w	r2, r2, #64	@ 0x40
 8004638:	f103 0014 	add.w	r0, r3, #20
 800463c:	e840 2100 	strex	r1, r2, [r0]
 8004640:	2900      	cmp	r1, #0
 8004642:	d1f3      	bne.n	800462c <HAL_UART_AbortReceive_IT+0x5c>
 8004644:	6be0      	ldr	r0, [r4, #60]	@ 0x3c
 8004646:	b148      	cbz	r0, 800465c <HAL_UART_AbortReceive_IT+0x8c>
 8004648:	4b0c      	ldr	r3, [pc, #48]	@ (800467c <HAL_UART_AbortReceive_IT+0xac>)
 800464a:	6343      	str	r3, [r0, #52]	@ 0x34
 800464c:	f7fe f816 	bl	800267c <HAL_DMA_Abort_IT>
 8004650:	b110      	cbz	r0, 8004658 <HAL_UART_AbortReceive_IT+0x88>
 8004652:	6be0      	ldr	r0, [r4, #60]	@ 0x3c
 8004654:	6b43      	ldr	r3, [r0, #52]	@ 0x34
 8004656:	4798      	blx	r3
 8004658:	2000      	movs	r0, #0
 800465a:	bd10      	pop	{r4, pc}
 800465c:	2320      	movs	r3, #32
 800465e:	85e0      	strh	r0, [r4, #46]	@ 0x2e
 8004660:	f884 3042 	strb.w	r3, [r4, #66]	@ 0x42
 8004664:	6320      	str	r0, [r4, #48]	@ 0x30
 8004666:	4620      	mov	r0, r4
 8004668:	f7ff ffb1 	bl	80045ce <HAL_UART_AbortReceiveCpltCallback>
 800466c:	e7f4      	b.n	8004658 <HAL_UART_AbortReceive_IT+0x88>
 800466e:	2320      	movs	r3, #32
 8004670:	85e2      	strh	r2, [r4, #46]	@ 0x2e
 8004672:	f884 3042 	strb.w	r3, [r4, #66]	@ 0x42
 8004676:	6322      	str	r2, [r4, #48]	@ 0x30
 8004678:	e7f5      	b.n	8004666 <HAL_UART_AbortReceive_IT+0x96>
 800467a:	bf00      	nop
 800467c:	08004681 	.word	0x08004681

08004680 <UART_DMARxOnlyAbortCallback>:
 8004680:	b508      	push	{r3, lr}
 8004682:	2220      	movs	r2, #32
 8004684:	2300      	movs	r3, #0
 8004686:	6a40      	ldr	r0, [r0, #36]	@ 0x24
 8004688:	85c3      	strh	r3, [r0, #46]	@ 0x2e
 800468a:	f880 2042 	strb.w	r2, [r0, #66]	@ 0x42
 800468e:	6303      	str	r3, [r0, #48]	@ 0x30
 8004690:	f7ff ff9d 	bl	80045ce <HAL_UART_AbortReceiveCpltCallback>
 8004694:	bd08      	pop	{r3, pc}

08004696 <HAL_UARTEx_RxEventCallback>:
 8004696:	4770      	bx	lr

08004698 <UART_Receive_IT.isra.0>:
 8004698:	f890 3042 	ldrb.w	r3, [r0, #66]	@ 0x42
 800469c:	b507      	push	{r0, r1, r2, lr}
 800469e:	2b22      	cmp	r3, #34	@ 0x22
 80046a0:	d142      	bne.n	8004728 <UART_Receive_IT.isra.0+0x90>
 80046a2:	6881      	ldr	r1, [r0, #8]
 80046a4:	6802      	ldr	r2, [r0, #0]
 80046a6:	f5b1 5f80 	cmp.w	r1, #4096	@ 0x1000
 80046aa:	6a83      	ldr	r3, [r0, #40]	@ 0x28
 80046ac:	d13f      	bne.n	800472e <UART_Receive_IT.isra.0+0x96>
 80046ae:	6901      	ldr	r1, [r0, #16]
 80046b0:	2900      	cmp	r1, #0
 80046b2:	d13f      	bne.n	8004734 <UART_Receive_IT.isra.0+0x9c>
 80046b4:	6852      	ldr	r2, [r2, #4]
 80046b6:	f3c2 0208 	ubfx	r2, r2, #0, #9
 80046ba:	f823 2b02 	strh.w	r2, [r3], #2
 80046be:	6283      	str	r3, [r0, #40]	@ 0x28
 80046c0:	8dc3      	ldrh	r3, [r0, #46]	@ 0x2e
 80046c2:	3b01      	subs	r3, #1
 80046c4:	b29b      	uxth	r3, r3
 80046c6:	85c3      	strh	r3, [r0, #46]	@ 0x2e
 80046c8:	2b00      	cmp	r3, #0
 80046ca:	d12d      	bne.n	8004728 <UART_Receive_IT.isra.0+0x90>
 80046cc:	6802      	ldr	r2, [r0, #0]
 80046ce:	68d1      	ldr	r1, [r2, #12]
 80046d0:	f021 0120 	bic.w	r1, r1, #32
 80046d4:	60d1      	str	r1, [r2, #12]
 80046d6:	68d1      	ldr	r1, [r2, #12]
 80046d8:	f421 7180 	bic.w	r1, r1, #256	@ 0x100
 80046dc:	60d1      	str	r1, [r2, #12]
 80046de:	6951      	ldr	r1, [r2, #20]
 80046e0:	f021 0101 	bic.w	r1, r1, #1
 80046e4:	6151      	str	r1, [r2, #20]
 80046e6:	2220      	movs	r2, #32
 80046e8:	f880 2042 	strb.w	r2, [r0, #66]	@ 0x42
 80046ec:	6343      	str	r3, [r0, #52]	@ 0x34
 80046ee:	6b02      	ldr	r2, [r0, #48]	@ 0x30
 80046f0:	2a01      	cmp	r2, #1
 80046f2:	6802      	ldr	r2, [r0, #0]
 80046f4:	d128      	bne.n	8004748 <UART_Receive_IT.isra.0+0xb0>
 80046f6:	6303      	str	r3, [r0, #48]	@ 0x30
 80046f8:	f102 030c 	add.w	r3, r2, #12
 80046fc:	e853 3f00 	ldrex	r3, [r3]
 8004700:	f023 0310 	bic.w	r3, r3, #16
 8004704:	f102 0c0c 	add.w	ip, r2, #12
 8004708:	e84c 3100 	strex	r1, r3, [ip]
 800470c:	2900      	cmp	r1, #0
 800470e:	d1f3      	bne.n	80046f8 <UART_Receive_IT.isra.0+0x60>
 8004710:	6813      	ldr	r3, [r2, #0]
 8004712:	06db      	lsls	r3, r3, #27
 8004714:	d505      	bpl.n	8004722 <UART_Receive_IT.isra.0+0x8a>
 8004716:	9101      	str	r1, [sp, #4]
 8004718:	6813      	ldr	r3, [r2, #0]
 800471a:	9301      	str	r3, [sp, #4]
 800471c:	6853      	ldr	r3, [r2, #4]
 800471e:	9301      	str	r3, [sp, #4]
 8004720:	9b01      	ldr	r3, [sp, #4]
 8004722:	8d81      	ldrh	r1, [r0, #44]	@ 0x2c
 8004724:	f7ff ffb7 	bl	8004696 <HAL_UARTEx_RxEventCallback>
 8004728:	b003      	add	sp, #12
 800472a:	f85d fb04 	ldr.w	pc, [sp], #4
 800472e:	b939      	cbnz	r1, 8004740 <UART_Receive_IT.isra.0+0xa8>
 8004730:	6901      	ldr	r1, [r0, #16]
 8004732:	b929      	cbnz	r1, 8004740 <UART_Receive_IT.isra.0+0xa8>
 8004734:	6852      	ldr	r2, [r2, #4]
 8004736:	b2d2      	uxtb	r2, r2
 8004738:	701a      	strb	r2, [r3, #0]
 800473a:	6a83      	ldr	r3, [r0, #40]	@ 0x28
 800473c:	3301      	adds	r3, #1
 800473e:	e7be      	b.n	80046be <UART_Receive_IT.isra.0+0x26>
 8004740:	6852      	ldr	r2, [r2, #4]
 8004742:	f002 027f 	and.w	r2, r2, #127	@ 0x7f
 8004746:	e7f7      	b.n	8004738 <UART_Receive_IT.isra.0+0xa0>
 8004748:	f7fc ff9a 	bl	8001680 <HAL_UART_RxCpltCallback>
 800474c:	e7ec      	b.n	8004728 <UART_Receive_IT.isra.0+0x90>
	...

08004750 <HAL_UART_IRQHandler>:
 8004750:	6803      	ldr	r3, [r0, #0]
 8004752:	b573      	push	{r0, r1, r4, r5, r6, lr}
 8004754:	681a      	ldr	r2, [r3, #0]
 8004756:	4604      	mov	r4, r0
 8004758:	0716      	lsls	r6, r2, #28
 800475a:	68d9      	ldr	r1, [r3, #12]
 800475c:	695d      	ldr	r5, [r3, #20]
 800475e:	d108      	bne.n	8004772 <HAL_UART_IRQHandler+0x22>
 8004760:	0696      	lsls	r6, r2, #26
 8004762:	d568      	bpl.n	8004836 <HAL_UART_IRQHandler+0xe6>
 8004764:	068d      	lsls	r5, r1, #26
 8004766:	d566      	bpl.n	8004836 <HAL_UART_IRQHandler+0xe6>
 8004768:	b002      	add	sp, #8
 800476a:	e8bd 4070 	ldmia.w	sp!, {r4, r5, r6, lr}
 800476e:	f7ff bf93 	b.w	8004698 <UART_Receive_IT.isra.0>
 8004772:	f005 0001 	and.w	r0, r5, #1
 8004776:	f401 7590 	and.w	r5, r1, #288	@ 0x120
 800477a:	4305      	orrs	r5, r0
 800477c:	d05b      	beq.n	8004836 <HAL_UART_IRQHandler+0xe6>
 800477e:	07d6      	lsls	r6, r2, #31
 8004780:	d505      	bpl.n	800478e <HAL_UART_IRQHandler+0x3e>
 8004782:	05cd      	lsls	r5, r1, #23
 8004784:	bf42      	ittt	mi
 8004786:	6c63      	ldrmi	r3, [r4, #68]	@ 0x44
 8004788:	f043 0301 	orrmi.w	r3, r3, #1
 800478c:	6463      	strmi	r3, [r4, #68]	@ 0x44
 800478e:	0753      	lsls	r3, r2, #29
 8004790:	d504      	bpl.n	800479c <HAL_UART_IRQHandler+0x4c>
 8004792:	b118      	cbz	r0, 800479c <HAL_UART_IRQHandler+0x4c>
 8004794:	6c63      	ldr	r3, [r4, #68]	@ 0x44
 8004796:	f043 0302 	orr.w	r3, r3, #2
 800479a:	6463      	str	r3, [r4, #68]	@ 0x44
 800479c:	0796      	lsls	r6, r2, #30
 800479e:	d504      	bpl.n	80047aa <HAL_UART_IRQHandler+0x5a>
 80047a0:	b118      	cbz	r0, 80047aa <HAL_UART_IRQHandler+0x5a>
 80047a2:	6c63      	ldr	r3, [r4, #68]	@ 0x44
 80047a4:	f043 0304 	orr.w	r3, r3, #4
 80047a8:	6463      	str	r3, [r4, #68]	@ 0x44
 80047aa:	0715      	lsls	r5, r2, #28
 80047ac:	d507      	bpl.n	80047be <HAL_UART_IRQHandler+0x6e>
 80047ae:	f001 0320 	and.w	r3, r1, #32
 80047b2:	4303      	orrs	r3, r0
 80047b4:	bf1e      	ittt	ne
 80047b6:	6c63      	ldrne	r3, [r4, #68]	@ 0x44
 80047b8:	f043 0308 	orrne.w	r3, r3, #8
 80047bc:	6463      	strne	r3, [r4, #68]	@ 0x44
 80047be:	6c63      	ldr	r3, [r4, #68]	@ 0x44
 80047c0:	2b00      	cmp	r3, #0
 80047c2:	d032      	beq.n	800482a <HAL_UART_IRQHandler+0xda>
 80047c4:	0692      	lsls	r2, r2, #26
 80047c6:	d504      	bpl.n	80047d2 <HAL_UART_IRQHandler+0x82>
 80047c8:	068b      	lsls	r3, r1, #26
 80047ca:	d502      	bpl.n	80047d2 <HAL_UART_IRQHandler+0x82>
 80047cc:	4620      	mov	r0, r4
 80047ce:	f7ff ff63 	bl	8004698 <UART_Receive_IT.isra.0>
 80047d2:	6826      	ldr	r6, [r4, #0]
 80047d4:	4620      	mov	r0, r4
 80047d6:	6973      	ldr	r3, [r6, #20]
 80047d8:	6c62      	ldr	r2, [r4, #68]	@ 0x44
 80047da:	f003 0340 	and.w	r3, r3, #64	@ 0x40
 80047de:	f002 0208 	and.w	r2, r2, #8
 80047e2:	ea53 0502 	orrs.w	r5, r3, r2
 80047e6:	d022      	beq.n	800482e <HAL_UART_IRQHandler+0xde>
 80047e8:	f7ff fd0c 	bl	8004204 <UART_EndRxTransfer>
 80047ec:	6973      	ldr	r3, [r6, #20]
 80047ee:	065e      	lsls	r6, r3, #25
 80047f0:	d518      	bpl.n	8004824 <HAL_UART_IRQHandler+0xd4>
 80047f2:	6822      	ldr	r2, [r4, #0]
 80047f4:	f102 0314 	add.w	r3, r2, #20
 80047f8:	e853 3f00 	ldrex	r3, [r3]
 80047fc:	f023 0340 	bic.w	r3, r3, #64	@ 0x40
 8004800:	3214      	adds	r2, #20
 8004802:	e842 3100 	strex	r1, r3, [r2]
 8004806:	2900      	cmp	r1, #0
 8004808:	d1f3      	bne.n	80047f2 <HAL_UART_IRQHandler+0xa2>
 800480a:	6be0      	ldr	r0, [r4, #60]	@ 0x3c
 800480c:	b150      	cbz	r0, 8004824 <HAL_UART_IRQHandler+0xd4>
 800480e:	4b74      	ldr	r3, [pc, #464]	@ (80049e0 <HAL_UART_IRQHandler+0x290>)
 8004810:	6343      	str	r3, [r0, #52]	@ 0x34
 8004812:	f7fd ff33 	bl	800267c <HAL_DMA_Abort_IT>
 8004816:	b140      	cbz	r0, 800482a <HAL_UART_IRQHandler+0xda>
 8004818:	6be0      	ldr	r0, [r4, #60]	@ 0x3c
 800481a:	6b43      	ldr	r3, [r0, #52]	@ 0x34
 800481c:	b002      	add	sp, #8
 800481e:	e8bd 4070 	ldmia.w	sp!, {r4, r5, r6, lr}
 8004822:	4718      	bx	r3
 8004824:	4620      	mov	r0, r4
 8004826:	f7fc ff35 	bl	8001694 <HAL_UART_ErrorCallback>
 800482a:	b002      	add	sp, #8
 800482c:	bd70      	pop	{r4, r5, r6, pc}
 800482e:	f7fc ff31 	bl	8001694 <HAL_UART_ErrorCallback>
 8004832:	6465      	str	r5, [r4, #68]	@ 0x44
 8004834:	e7f9      	b.n	800482a <HAL_UART_IRQHandler+0xda>
 8004836:	6b20      	ldr	r0, [r4, #48]	@ 0x30
 8004838:	2801      	cmp	r0, #1
 800483a:	f040 8094 	bne.w	8004966 <HAL_UART_IRQHandler+0x216>
 800483e:	06d5      	lsls	r5, r2, #27
 8004840:	f140 8091 	bpl.w	8004966 <HAL_UART_IRQHandler+0x216>
 8004844:	06c8      	lsls	r0, r1, #27
 8004846:	f140 808e 	bpl.w	8004966 <HAL_UART_IRQHandler+0x216>
 800484a:	2200      	movs	r2, #0
 800484c:	9201      	str	r2, [sp, #4]
 800484e:	681a      	ldr	r2, [r3, #0]
 8004850:	9201      	str	r2, [sp, #4]
 8004852:	685a      	ldr	r2, [r3, #4]
 8004854:	9201      	str	r2, [sp, #4]
 8004856:	9a01      	ldr	r2, [sp, #4]
 8004858:	695a      	ldr	r2, [r3, #20]
 800485a:	0652      	lsls	r2, r2, #25
 800485c:	d54d      	bpl.n	80048fa <HAL_UART_IRQHandler+0x1aa>
 800485e:	6be1      	ldr	r1, [r4, #60]	@ 0x3c
 8004860:	680a      	ldr	r2, [r1, #0]
 8004862:	6852      	ldr	r2, [r2, #4]
 8004864:	b292      	uxth	r2, r2
 8004866:	2a00      	cmp	r2, #0
 8004868:	d0df      	beq.n	800482a <HAL_UART_IRQHandler+0xda>
 800486a:	8da0      	ldrh	r0, [r4, #44]	@ 0x2c
 800486c:	4290      	cmp	r0, r2
 800486e:	d9dc      	bls.n	800482a <HAL_UART_IRQHandler+0xda>
 8004870:	85e2      	strh	r2, [r4, #46]	@ 0x2e
 8004872:	698a      	ldr	r2, [r1, #24]
 8004874:	2a20      	cmp	r2, #32
 8004876:	d036      	beq.n	80048e6 <HAL_UART_IRQHandler+0x196>
 8004878:	f103 020c 	add.w	r2, r3, #12
 800487c:	e852 2f00 	ldrex	r2, [r2]
 8004880:	f422 7280 	bic.w	r2, r2, #256	@ 0x100
 8004884:	f103 000c 	add.w	r0, r3, #12
 8004888:	e840 2100 	strex	r1, r2, [r0]
 800488c:	2900      	cmp	r1, #0
 800488e:	d1f3      	bne.n	8004878 <HAL_UART_IRQHandler+0x128>
 8004890:	f103 0214 	add.w	r2, r3, #20
 8004894:	e852 2f00 	ldrex	r2, [r2]
 8004898:	f022 0201 	bic.w	r2, r2, #1
 800489c:	f103 0014 	add.w	r0, r3, #20
 80048a0:	e840 2100 	strex	r1, r2, [r0]
 80048a4:	2900      	cmp	r1, #0
 80048a6:	d1f3      	bne.n	8004890 <HAL_UART_IRQHandler+0x140>
 80048a8:	f103 0214 	add.w	r2, r3, #20
 80048ac:	e852 2f00 	ldrex	r2, [r2]
 80048b0:	f022 0240 	bic.w	r2, r2, #64	@ 0x40
 80048b4:	f103 0014 	add.w	r0, r3, #20
 80048b8:	e840 2100 	strex	r1, r2, [r0]
 80048bc:	2900      	cmp	r1, #0
 80048be:	d1f3      	bne.n	80048a8 <HAL_UART_IRQHandler+0x158>
 80048c0:	2220      	movs	r2, #32
 80048c2:	f884 2042 	strb.w	r2, [r4, #66]	@ 0x42
 80048c6:	6321      	str	r1, [r4, #48]	@ 0x30
 80048c8:	f103 020c 	add.w	r2, r3, #12
 80048cc:	e852 2f00 	ldrex	r2, [r2]
 80048d0:	f022 0210 	bic.w	r2, r2, #16
 80048d4:	f103 000c 	add.w	r0, r3, #12
 80048d8:	e840 2100 	strex	r1, r2, [r0]
 80048dc:	2900      	cmp	r1, #0
 80048de:	d1f3      	bne.n	80048c8 <HAL_UART_IRQHandler+0x178>
 80048e0:	6be0      	ldr	r0, [r4, #60]	@ 0x3c
 80048e2:	f7fd feab 	bl	800263c <HAL_DMA_Abort>
 80048e6:	2302      	movs	r3, #2
 80048e8:	6363      	str	r3, [r4, #52]	@ 0x34
 80048ea:	8de3      	ldrh	r3, [r4, #46]	@ 0x2e
 80048ec:	8da1      	ldrh	r1, [r4, #44]	@ 0x2c
 80048ee:	1ac9      	subs	r1, r1, r3
 80048f0:	b289      	uxth	r1, r1
 80048f2:	4620      	mov	r0, r4
 80048f4:	f7ff fecf 	bl	8004696 <HAL_UARTEx_RxEventCallback>
 80048f8:	e797      	b.n	800482a <HAL_UART_IRQHandler+0xda>
 80048fa:	8de2      	ldrh	r2, [r4, #46]	@ 0x2e
 80048fc:	8de0      	ldrh	r0, [r4, #46]	@ 0x2e
 80048fe:	8da1      	ldrh	r1, [r4, #44]	@ 0x2c
 8004900:	b280      	uxth	r0, r0
 8004902:	b292      	uxth	r2, r2
 8004904:	2800      	cmp	r0, #0
 8004906:	d090      	beq.n	800482a <HAL_UART_IRQHandler+0xda>
 8004908:	1a89      	subs	r1, r1, r2
 800490a:	b289      	uxth	r1, r1
 800490c:	2900      	cmp	r1, #0
 800490e:	d08c      	beq.n	800482a <HAL_UART_IRQHandler+0xda>
 8004910:	f103 020c 	add.w	r2, r3, #12
 8004914:	e852 2f00 	ldrex	r2, [r2]
 8004918:	f422 7290 	bic.w	r2, r2, #288	@ 0x120
 800491c:	f103 050c 	add.w	r5, r3, #12
 8004920:	e845 2000 	strex	r0, r2, [r5]
 8004924:	2800      	cmp	r0, #0
 8004926:	d1f3      	bne.n	8004910 <HAL_UART_IRQHandler+0x1c0>
 8004928:	f103 0214 	add.w	r2, r3, #20
 800492c:	e852 2f00 	ldrex	r2, [r2]
 8004930:	f022 0201 	bic.w	r2, r2, #1
 8004934:	f103 0514 	add.w	r5, r3, #20
 8004938:	e845 2000 	strex	r0, r2, [r5]
 800493c:	2800      	cmp	r0, #0
 800493e:	d1f3      	bne.n	8004928 <HAL_UART_IRQHandler+0x1d8>
 8004940:	2220      	movs	r2, #32
 8004942:	f884 2042 	strb.w	r2, [r4, #66]	@ 0x42
 8004946:	6320      	str	r0, [r4, #48]	@ 0x30
 8004948:	f103 020c 	add.w	r2, r3, #12
 800494c:	e852 2f00 	ldrex	r2, [r2]
 8004950:	f022 0210 	bic.w	r2, r2, #16
 8004954:	f103 050c 	add.w	r5, r3, #12
 8004958:	e845 2000 	strex	r0, r2, [r5]
 800495c:	2800      	cmp	r0, #0
 800495e:	d1f3      	bne.n	8004948 <HAL_UART_IRQHandler+0x1f8>
 8004960:	2302      	movs	r3, #2
 8004962:	6363      	str	r3, [r4, #52]	@ 0x34
 8004964:	e7c5      	b.n	80048f2 <HAL_UART_IRQHandler+0x1a2>
 8004966:	0616      	lsls	r6, r2, #24
 8004968:	d528      	bpl.n	80049bc <HAL_UART_IRQHandler+0x26c>
 800496a:	060d      	lsls	r5, r1, #24
 800496c:	d526      	bpl.n	80049bc <HAL_UART_IRQHandler+0x26c>
 800496e:	f894 2041 	ldrb.w	r2, [r4, #65]	@ 0x41
 8004972:	2a21      	cmp	r2, #33	@ 0x21
 8004974:	f47f af59 	bne.w	800482a <HAL_UART_IRQHandler+0xda>
 8004978:	68a1      	ldr	r1, [r4, #8]
 800497a:	6a22      	ldr	r2, [r4, #32]
 800497c:	f5b1 5f80 	cmp.w	r1, #4096	@ 0x1000
 8004980:	d117      	bne.n	80049b2 <HAL_UART_IRQHandler+0x262>
 8004982:	6921      	ldr	r1, [r4, #16]
 8004984:	b9a9      	cbnz	r1, 80049b2 <HAL_UART_IRQHandler+0x262>
 8004986:	f832 1b02 	ldrh.w	r1, [r2], #2
 800498a:	f3c1 0108 	ubfx	r1, r1, #0, #9
 800498e:	6059      	str	r1, [r3, #4]
 8004990:	6222      	str	r2, [r4, #32]
 8004992:	8ce2      	ldrh	r2, [r4, #38]	@ 0x26
 8004994:	3a01      	subs	r2, #1
 8004996:	b292      	uxth	r2, r2
 8004998:	84e2      	strh	r2, [r4, #38]	@ 0x26
 800499a:	2a00      	cmp	r2, #0
 800499c:	f47f af45 	bne.w	800482a <HAL_UART_IRQHandler+0xda>
 80049a0:	68da      	ldr	r2, [r3, #12]
 80049a2:	f022 0280 	bic.w	r2, r2, #128	@ 0x80
 80049a6:	60da      	str	r2, [r3, #12]
 80049a8:	68da      	ldr	r2, [r3, #12]
 80049aa:	f042 0240 	orr.w	r2, r2, #64	@ 0x40
 80049ae:	60da      	str	r2, [r3, #12]
 80049b0:	e73b      	b.n	800482a <HAL_UART_IRQHandler+0xda>
 80049b2:	1c51      	adds	r1, r2, #1
 80049b4:	6221      	str	r1, [r4, #32]
 80049b6:	7812      	ldrb	r2, [r2, #0]
 80049b8:	605a      	str	r2, [r3, #4]
 80049ba:	e7ea      	b.n	8004992 <HAL_UART_IRQHandler+0x242>
 80049bc:	0650      	lsls	r0, r2, #25
 80049be:	f57f af34 	bpl.w	800482a <HAL_UART_IRQHandler+0xda>
 80049c2:	064a      	lsls	r2, r1, #25
 80049c4:	f57f af31 	bpl.w	800482a <HAL_UART_IRQHandler+0xda>
 80049c8:	68da      	ldr	r2, [r3, #12]
 80049ca:	4620      	mov	r0, r4
 80049cc:	f022 0240 	bic.w	r2, r2, #64	@ 0x40
 80049d0:	60da      	str	r2, [r3, #12]
 80049d2:	2320      	movs	r3, #32
 80049d4:	f884 3041 	strb.w	r3, [r4, #65]	@ 0x41
 80049d8:	f7ff fdf0 	bl	80045bc <HAL_UART_TxCpltCallback>
 80049dc:	e725      	b.n	800482a <HAL_UART_IRQHandler+0xda>
 80049de:	bf00      	nop
 80049e0:	080045bf 	.word	0x080045bf

080049e4 <UART_Start_Receive_IT>:
 80049e4:	2300      	movs	r3, #0
 80049e6:	85c2      	strh	r2, [r0, #46]	@ 0x2e
 80049e8:	6443      	str	r3, [r0, #68]	@ 0x44
 80049ea:	2322      	movs	r3, #34	@ 0x22
 80049ec:	8582      	strh	r2, [r0, #44]	@ 0x2c
 80049ee:	6902      	ldr	r2, [r0, #16]
 80049f0:	f880 3042 	strb.w	r3, [r0, #66]	@ 0x42
 80049f4:	6281      	str	r1, [r0, #40]	@ 0x28
 80049f6:	6803      	ldr	r3, [r0, #0]
 80049f8:	b11a      	cbz	r2, 8004a02 <UART_Start_Receive_IT+0x1e>
 80049fa:	68da      	ldr	r2, [r3, #12]
 80049fc:	f442 7280 	orr.w	r2, r2, #256	@ 0x100
 8004a00:	60da      	str	r2, [r3, #12]
 8004a02:	695a      	ldr	r2, [r3, #20]
 8004a04:	2000      	movs	r0, #0
 8004a06:	f042 0201 	orr.w	r2, r2, #1
 8004a0a:	615a      	str	r2, [r3, #20]
 8004a0c:	68da      	ldr	r2, [r3, #12]
 8004a0e:	f042 0220 	orr.w	r2, r2, #32
 8004a12:	60da      	str	r2, [r3, #12]
 8004a14:	4770      	bx	lr

08004a16 <HAL_UART_Receive_IT>:
 8004a16:	b470      	push	{r4, r5, r6}
 8004a18:	f890 6042 	ldrb.w	r6, [r0, #66]	@ 0x42
 8004a1c:	2e20      	cmp	r6, #32
 8004a1e:	d106      	bne.n	8004a2e <HAL_UART_Receive_IT+0x18>
 8004a20:	b141      	cbz	r1, 8004a34 <HAL_UART_Receive_IT+0x1e>
 8004a22:	b13a      	cbz	r2, 8004a34 <HAL_UART_Receive_IT+0x1e>
 8004a24:	2400      	movs	r4, #0
 8004a26:	6304      	str	r4, [r0, #48]	@ 0x30
 8004a28:	bc70      	pop	{r4, r5, r6}
 8004a2a:	f7ff bfdb 	b.w	80049e4 <UART_Start_Receive_IT>
 8004a2e:	2002      	movs	r0, #2
 8004a30:	bc70      	pop	{r4, r5, r6}
 8004a32:	4770      	bx	lr
 8004a34:	2001      	movs	r0, #1
 8004a36:	e7fb      	b.n	8004a30 <HAL_UART_Receive_IT+0x1a>

08004a38 <osKernelStart>:
 8004a38:	b508      	push	{r3, lr}
 8004a3a:	f000 fa41 	bl	8004ec0 <vTaskStartScheduler>
 8004a3e:	2000      	movs	r0, #0
 8004a40:	bd08      	pop	{r3, pc}

08004a42 <osThreadCreate>:
 8004a42:	b570      	push	{r4, r5, r6, lr}
 8004a44:	4605      	mov	r5, r0
 8004a46:	6946      	ldr	r6, [r0, #20]
 8004a48:	460b      	mov	r3, r1
 8004a4a:	e9d0 1000 	ldrd	r1, r0, [r0]
 8004a4e:	692a      	ldr	r2, [r5, #16]
 8004a50:	f9b5 4008 	ldrsh.w	r4, [r5, #8]
 8004a54:	b086      	sub	sp, #24
 8004a56:	b176      	cbz	r6, 8004a76 <osThreadCreate+0x34>
 8004a58:	69ad      	ldr	r5, [r5, #24]
 8004a5a:	b165      	cbz	r5, 8004a76 <osThreadCreate+0x34>
 8004a5c:	2c84      	cmp	r4, #132	@ 0x84
 8004a5e:	bf0c      	ite	eq
 8004a60:	2400      	moveq	r4, #0
 8004a62:	3403      	addne	r4, #3
 8004a64:	e9cd 6501 	strd	r6, r5, [sp, #4]
 8004a68:	9400      	str	r4, [sp, #0]
 8004a6a:	f000 f9c2 	bl	8004df2 <xTaskCreateStatic>
 8004a6e:	9005      	str	r0, [sp, #20]
 8004a70:	9805      	ldr	r0, [sp, #20]
 8004a72:	b006      	add	sp, #24
 8004a74:	bd70      	pop	{r4, r5, r6, pc}
 8004a76:	2c84      	cmp	r4, #132	@ 0x84
 8004a78:	bf0c      	ite	eq
 8004a7a:	2400      	moveq	r4, #0
 8004a7c:	3403      	addne	r4, #3
 8004a7e:	ad05      	add	r5, sp, #20
 8004a80:	e9cd 4500 	strd	r4, r5, [sp]
 8004a84:	b292      	uxth	r2, r2
 8004a86:	f000 f9ec 	bl	8004e62 <xTaskCreate>
 8004a8a:	2801      	cmp	r0, #1
 8004a8c:	d0f0      	beq.n	8004a70 <osThreadCreate+0x2e>
 8004a8e:	2000      	movs	r0, #0
 8004a90:	e7ef      	b.n	8004a72 <osThreadCreate+0x30>

08004a92 <osDelay>:
 8004a92:	b508      	push	{r3, lr}
 8004a94:	2801      	cmp	r0, #1
 8004a96:	bf38      	it	cc
 8004a98:	2001      	movcc	r0, #1
 8004a9a:	f000 fb61 	bl	8005160 <vTaskDelay>
 8004a9e:	2000      	movs	r0, #0
 8004aa0:	bd08      	pop	{r3, pc}

08004aa2 <vListInitialise>:
 8004aa2:	f04f 32ff 	mov.w	r2, #4294967295
 8004aa6:	f100 0308 	add.w	r3, r0, #8
 8004aaa:	e9c0 2302 	strd	r2, r3, [r0, #8]
 8004aae:	6043      	str	r3, [r0, #4]
 8004ab0:	6103      	str	r3, [r0, #16]
 8004ab2:	2300      	movs	r3, #0
 8004ab4:	6003      	str	r3, [r0, #0]
 8004ab6:	4770      	bx	lr

08004ab8 <vListInitialiseItem>:
 8004ab8:	2300      	movs	r3, #0
 8004aba:	6103      	str	r3, [r0, #16]
 8004abc:	4770      	bx	lr

08004abe <vListInsertEnd>:
 8004abe:	6843      	ldr	r3, [r0, #4]
 8004ac0:	689a      	ldr	r2, [r3, #8]
 8004ac2:	604b      	str	r3, [r1, #4]
 8004ac4:	608a      	str	r2, [r1, #8]
 8004ac6:	6051      	str	r1, [r2, #4]
 8004ac8:	6099      	str	r1, [r3, #8]
 8004aca:	6803      	ldr	r3, [r0, #0]
 8004acc:	6108      	str	r0, [r1, #16]
 8004ace:	3301      	adds	r3, #1
 8004ad0:	6003      	str	r3, [r0, #0]
 8004ad2:	4770      	bx	lr

08004ad4 <vListInsert>:
 8004ad4:	b530      	push	{r4, r5, lr}
 8004ad6:	680c      	ldr	r4, [r1, #0]
 8004ad8:	1c63      	adds	r3, r4, #1
 8004ada:	d10a      	bne.n	8004af2 <vListInsert+0x1e>
 8004adc:	6903      	ldr	r3, [r0, #16]
 8004ade:	685a      	ldr	r2, [r3, #4]
 8004ae0:	604a      	str	r2, [r1, #4]
 8004ae2:	6091      	str	r1, [r2, #8]
 8004ae4:	608b      	str	r3, [r1, #8]
 8004ae6:	6059      	str	r1, [r3, #4]
 8004ae8:	6803      	ldr	r3, [r0, #0]
 8004aea:	6108      	str	r0, [r1, #16]
 8004aec:	3301      	adds	r3, #1
 8004aee:	6003      	str	r3, [r0, #0]
 8004af0:	bd30      	pop	{r4, r5, pc}
 8004af2:	f100 0208 	add.w	r2, r0, #8
 8004af6:	4613      	mov	r3, r2
 8004af8:	6852      	ldr	r2, [r2, #4]
 8004afa:	6815      	ldr	r5, [r2, #0]
 8004afc:	42a5      	cmp	r5, r4
 8004afe:	d9fa      	bls.n	8004af6 <vListInsert+0x22>
 8004b00:	e7ed      	b.n	8004ade <vListInsert+0xa>

08004b02 <uxListRemove>:
 8004b02:	6903      	ldr	r3, [r0, #16]
 8004b04:	e9d0 1201 	ldrd	r1, r2, [r0, #4]
 8004b08:	608a      	str	r2, [r1, #8]
 8004b0a:	6051      	str	r1, [r2, #4]
 8004b0c:	6859      	ldr	r1, [r3, #4]
 8004b0e:	4281      	cmp	r1, r0
 8004b10:	bf08      	it	eq
 8004b12:	605a      	streq	r2, [r3, #4]
 8004b14:	2200      	movs	r2, #0
 8004b16:	6102      	str	r2, [r0, #16]
 8004b18:	681a      	ldr	r2, [r3, #0]
 8004b1a:	3a01      	subs	r2, #1
 8004b1c:	601a      	str	r2, [r3, #0]
 8004b1e:	6818      	ldr	r0, [r3, #0]
 8004b20:	4770      	bx	lr
	...

08004b24 <prvAddNewTaskToReadyList>:
 8004b24:	e92d 41f0 	stmdb	sp!, {r4, r5, r6, r7, r8, lr}
 8004b28:	4604      	mov	r4, r0
 8004b2a:	f000 fbdb 	bl	80052e4 <vPortEnterCritical>
 8004b2e:	4b2f      	ldr	r3, [pc, #188]	@ (8004bec <prvAddNewTaskToReadyList+0xc8>)
 8004b30:	4e2f      	ldr	r6, [pc, #188]	@ (8004bf0 <prvAddNewTaskToReadyList+0xcc>)
 8004b32:	681a      	ldr	r2, [r3, #0]
 8004b34:	4f2f      	ldr	r7, [pc, #188]	@ (8004bf4 <prvAddNewTaskToReadyList+0xd0>)
 8004b36:	3201      	adds	r2, #1
 8004b38:	601a      	str	r2, [r3, #0]
 8004b3a:	6835      	ldr	r5, [r6, #0]
 8004b3c:	2d00      	cmp	r5, #0
 8004b3e:	d14a      	bne.n	8004bd6 <prvAddNewTaskToReadyList+0xb2>
 8004b40:	6034      	str	r4, [r6, #0]
 8004b42:	681b      	ldr	r3, [r3, #0]
 8004b44:	2b01      	cmp	r3, #1
 8004b46:	d11f      	bne.n	8004b88 <prvAddNewTaskToReadyList+0x64>
 8004b48:	46b8      	mov	r8, r7
 8004b4a:	4640      	mov	r0, r8
 8004b4c:	3501      	adds	r5, #1
 8004b4e:	f7ff ffa8 	bl	8004aa2 <vListInitialise>
 8004b52:	2d07      	cmp	r5, #7
 8004b54:	f108 0814 	add.w	r8, r8, #20
 8004b58:	d1f7      	bne.n	8004b4a <prvAddNewTaskToReadyList+0x26>
 8004b5a:	f8df 809c 	ldr.w	r8, [pc, #156]	@ 8004bf8 <prvAddNewTaskToReadyList+0xd4>
 8004b5e:	4d27      	ldr	r5, [pc, #156]	@ (8004bfc <prvAddNewTaskToReadyList+0xd8>)
 8004b60:	4640      	mov	r0, r8
 8004b62:	f7ff ff9e 	bl	8004aa2 <vListInitialise>
 8004b66:	4628      	mov	r0, r5
 8004b68:	f7ff ff9b 	bl	8004aa2 <vListInitialise>
 8004b6c:	4824      	ldr	r0, [pc, #144]	@ (8004c00 <prvAddNewTaskToReadyList+0xdc>)
 8004b6e:	f7ff ff98 	bl	8004aa2 <vListInitialise>
 8004b72:	4824      	ldr	r0, [pc, #144]	@ (8004c04 <prvAddNewTaskToReadyList+0xe0>)
 8004b74:	f7ff ff95 	bl	8004aa2 <vListInitialise>
 8004b78:	4823      	ldr	r0, [pc, #140]	@ (8004c08 <prvAddNewTaskToReadyList+0xe4>)
 8004b7a:	f7ff ff92 	bl	8004aa2 <vListInitialise>
 8004b7e:	4b23      	ldr	r3, [pc, #140]	@ (8004c0c <prvAddNewTaskToReadyList+0xe8>)
 8004b80:	f8c3 8000 	str.w	r8, [r3]
 8004b84:	4b22      	ldr	r3, [pc, #136]	@ (8004c10 <prvAddNewTaskToReadyList+0xec>)
 8004b86:	601d      	str	r5, [r3, #0]
 8004b88:	4a22      	ldr	r2, [pc, #136]	@ (8004c14 <prvAddNewTaskToReadyList+0xf0>)
 8004b8a:	4923      	ldr	r1, [pc, #140]	@ (8004c18 <prvAddNewTaskToReadyList+0xf4>)
 8004b8c:	6813      	ldr	r3, [r2, #0]
 8004b8e:	6808      	ldr	r0, [r1, #0]
 8004b90:	3301      	adds	r3, #1
 8004b92:	6013      	str	r3, [r2, #0]
 8004b94:	2301      	movs	r3, #1
 8004b96:	6ae2      	ldr	r2, [r4, #44]	@ 0x2c
 8004b98:	4093      	lsls	r3, r2
 8004b9a:	4303      	orrs	r3, r0
 8004b9c:	2014      	movs	r0, #20
 8004b9e:	600b      	str	r3, [r1, #0]
 8004ba0:	fb00 7002 	mla	r0, r0, r2, r7
 8004ba4:	1d21      	adds	r1, r4, #4
 8004ba6:	f7ff ff8a 	bl	8004abe <vListInsertEnd>
 8004baa:	f000 fbbb 	bl	8005324 <vPortExitCritical>
 8004bae:	4b1b      	ldr	r3, [pc, #108]	@ (8004c1c <prvAddNewTaskToReadyList+0xf8>)
 8004bb0:	681b      	ldr	r3, [r3, #0]
 8004bb2:	b173      	cbz	r3, 8004bd2 <prvAddNewTaskToReadyList+0xae>
 8004bb4:	6833      	ldr	r3, [r6, #0]
 8004bb6:	6ada      	ldr	r2, [r3, #44]	@ 0x2c
 8004bb8:	6ae3      	ldr	r3, [r4, #44]	@ 0x2c
 8004bba:	429a      	cmp	r2, r3
 8004bbc:	d209      	bcs.n	8004bd2 <prvAddNewTaskToReadyList+0xae>
 8004bbe:	f04f 23e0 	mov.w	r3, #3758153728	@ 0xe000e000
 8004bc2:	f04f 5280 	mov.w	r2, #268435456	@ 0x10000000
 8004bc6:	f8c3 2d04 	str.w	r2, [r3, #3332]	@ 0xd04
 8004bca:	f3bf 8f4f 	dsb	sy
 8004bce:	f3bf 8f6f 	isb	sy
 8004bd2:	e8bd 81f0 	ldmia.w	sp!, {r4, r5, r6, r7, r8, pc}
 8004bd6:	4b11      	ldr	r3, [pc, #68]	@ (8004c1c <prvAddNewTaskToReadyList+0xf8>)
 8004bd8:	681a      	ldr	r2, [r3, #0]
 8004bda:	6ae3      	ldr	r3, [r4, #44]	@ 0x2c
 8004bdc:	2a00      	cmp	r2, #0
 8004bde:	d1d3      	bne.n	8004b88 <prvAddNewTaskToReadyList+0x64>
 8004be0:	6832      	ldr	r2, [r6, #0]
 8004be2:	6ad2      	ldr	r2, [r2, #44]	@ 0x2c
 8004be4:	429a      	cmp	r2, r3
 8004be6:	bf98      	it	ls
 8004be8:	6034      	strls	r4, [r6, #0]
 8004bea:	e7cd      	b.n	8004b88 <prvAddNewTaskToReadyList+0x64>
 8004bec:	20000804 	.word	0x20000804
 8004bf0:	20000904 	.word	0x20000904
 8004bf4:	20000878 	.word	0x20000878
 8004bf8:	20000864 	.word	0x20000864
 8004bfc:	20000850 	.word	0x20000850
 8004c00:	20000834 	.word	0x20000834
 8004c04:	20000820 	.word	0x20000820
 8004c08:	20000808 	.word	0x20000808
 8004c0c:	2000084c 	.word	0x2000084c
 8004c10:	20000848 	.word	0x20000848
 8004c14:	200007e8 	.word	0x200007e8
 8004c18:	200007fc 	.word	0x200007fc
 8004c1c:	200007f8 	.word	0x200007f8

08004c20 <prvAddCurrentTaskToDelayedList>:
 8004c20:	b5f8      	push	{r3, r4, r5, r6, r7, lr}
 8004c22:	4b1a      	ldr	r3, [pc, #104]	@ (8004c8c <prvAddCurrentTaskToDelayedList+0x6c>)
 8004c24:	4d1a      	ldr	r5, [pc, #104]	@ (8004c90 <prvAddCurrentTaskToDelayedList+0x70>)
 8004c26:	4606      	mov	r6, r0
 8004c28:	681c      	ldr	r4, [r3, #0]
 8004c2a:	6828      	ldr	r0, [r5, #0]
 8004c2c:	460f      	mov	r7, r1
 8004c2e:	3004      	adds	r0, #4
 8004c30:	f7ff ff67 	bl	8004b02 <uxListRemove>
 8004c34:	b940      	cbnz	r0, 8004c48 <prvAddCurrentTaskToDelayedList+0x28>
 8004c36:	682a      	ldr	r2, [r5, #0]
 8004c38:	4916      	ldr	r1, [pc, #88]	@ (8004c94 <prvAddCurrentTaskToDelayedList+0x74>)
 8004c3a:	6ad0      	ldr	r0, [r2, #44]	@ 0x2c
 8004c3c:	2201      	movs	r2, #1
 8004c3e:	680b      	ldr	r3, [r1, #0]
 8004c40:	4082      	lsls	r2, r0
 8004c42:	ea23 0302 	bic.w	r3, r3, r2
 8004c46:	600b      	str	r3, [r1, #0]
 8004c48:	1c73      	adds	r3, r6, #1
 8004c4a:	d107      	bne.n	8004c5c <prvAddCurrentTaskToDelayedList+0x3c>
 8004c4c:	b137      	cbz	r7, 8004c5c <prvAddCurrentTaskToDelayedList+0x3c>
 8004c4e:	6829      	ldr	r1, [r5, #0]
 8004c50:	4811      	ldr	r0, [pc, #68]	@ (8004c98 <prvAddCurrentTaskToDelayedList+0x78>)
 8004c52:	3104      	adds	r1, #4
 8004c54:	e8bd 40f8 	ldmia.w	sp!, {r3, r4, r5, r6, r7, lr}
 8004c58:	f7ff bf31 	b.w	8004abe <vListInsertEnd>
 8004c5c:	682b      	ldr	r3, [r5, #0]
 8004c5e:	19a4      	adds	r4, r4, r6
 8004c60:	605c      	str	r4, [r3, #4]
 8004c62:	d307      	bcc.n	8004c74 <prvAddCurrentTaskToDelayedList+0x54>
 8004c64:	4b0d      	ldr	r3, [pc, #52]	@ (8004c9c <prvAddCurrentTaskToDelayedList+0x7c>)
 8004c66:	6818      	ldr	r0, [r3, #0]
 8004c68:	6829      	ldr	r1, [r5, #0]
 8004c6a:	e8bd 40f8 	ldmia.w	sp!, {r3, r4, r5, r6, r7, lr}
 8004c6e:	3104      	adds	r1, #4
 8004c70:	f7ff bf30 	b.w	8004ad4 <vListInsert>
 8004c74:	4b0a      	ldr	r3, [pc, #40]	@ (8004ca0 <prvAddCurrentTaskToDelayedList+0x80>)
 8004c76:	6818      	ldr	r0, [r3, #0]
 8004c78:	6829      	ldr	r1, [r5, #0]
 8004c7a:	3104      	adds	r1, #4
 8004c7c:	f7ff ff2a 	bl	8004ad4 <vListInsert>
 8004c80:	4b08      	ldr	r3, [pc, #32]	@ (8004ca4 <prvAddCurrentTaskToDelayedList+0x84>)
 8004c82:	681a      	ldr	r2, [r3, #0]
 8004c84:	42a2      	cmp	r2, r4
 8004c86:	bf88      	it	hi
 8004c88:	601c      	strhi	r4, [r3, #0]
 8004c8a:	bdf8      	pop	{r3, r4, r5, r6, r7, pc}
 8004c8c:	20000800 	.word	0x20000800
 8004c90:	20000904 	.word	0x20000904
 8004c94:	200007fc 	.word	0x200007fc
 8004c98:	20000808 	.word	0x20000808
 8004c9c:	20000848 	.word	0x20000848
 8004ca0:	2000084c 	.word	0x2000084c
 8004ca4:	200007e4 	.word	0x200007e4

08004ca8 <prvResetNextTaskUnblockTime>:
 8004ca8:	4a06      	ldr	r2, [pc, #24]	@ (8004cc4 <prvResetNextTaskUnblockTime+0x1c>)
 8004caa:	6813      	ldr	r3, [r2, #0]
 8004cac:	6819      	ldr	r1, [r3, #0]
 8004cae:	4b06      	ldr	r3, [pc, #24]	@ (8004cc8 <prvResetNextTaskUnblockTime+0x20>)
 8004cb0:	b919      	cbnz	r1, 8004cba <prvResetNextTaskUnblockTime+0x12>
 8004cb2:	f04f 32ff 	mov.w	r2, #4294967295
 8004cb6:	601a      	str	r2, [r3, #0]
 8004cb8:	4770      	bx	lr
 8004cba:	6812      	ldr	r2, [r2, #0]
 8004cbc:	68d2      	ldr	r2, [r2, #12]
 8004cbe:	68d2      	ldr	r2, [r2, #12]
 8004cc0:	6852      	ldr	r2, [r2, #4]
 8004cc2:	e7f8      	b.n	8004cb6 <prvResetNextTaskUnblockTime+0xe>
 8004cc4:	2000084c 	.word	0x2000084c
 8004cc8:	200007e4 	.word	0x200007e4

08004ccc <prvDeleteTCB>:
 8004ccc:	b510      	push	{r4, lr}
 8004cce:	f890 3051 	ldrb.w	r3, [r0, #81]	@ 0x51
 8004cd2:	4604      	mov	r4, r0
 8004cd4:	b93b      	cbnz	r3, 8004ce6 <prvDeleteTCB+0x1a>
 8004cd6:	6b00      	ldr	r0, [r0, #48]	@ 0x30
 8004cd8:	f000 fc9a 	bl	8005610 <vPortFree>
 8004cdc:	4620      	mov	r0, r4
 8004cde:	e8bd 4010 	ldmia.w	sp!, {r4, lr}
 8004ce2:	f000 bc95 	b.w	8005610 <vPortFree>
 8004ce6:	2b01      	cmp	r3, #1
 8004ce8:	d0f9      	beq.n	8004cde <prvDeleteTCB+0x12>
 8004cea:	2b02      	cmp	r3, #2
 8004cec:	d008      	beq.n	8004d00 <prvDeleteTCB+0x34>
 8004cee:	f04f 0350 	mov.w	r3, #80	@ 0x50
 8004cf2:	f383 8811 	msr	BASEPRI, r3
 8004cf6:	f3bf 8f6f 	isb	sy
 8004cfa:	f3bf 8f4f 	dsb	sy
 8004cfe:	e7fe      	b.n	8004cfe <prvDeleteTCB+0x32>
 8004d00:	bd10      	pop	{r4, pc}
	...

08004d04 <prvIdleTask>:
 8004d04:	b580      	push	{r7, lr}
 8004d06:	4c13      	ldr	r4, [pc, #76]	@ (8004d54 <prvIdleTask+0x50>)
 8004d08:	4f13      	ldr	r7, [pc, #76]	@ (8004d58 <prvIdleTask+0x54>)
 8004d0a:	4d14      	ldr	r5, [pc, #80]	@ (8004d5c <prvIdleTask+0x58>)
 8004d0c:	6823      	ldr	r3, [r4, #0]
 8004d0e:	b973      	cbnz	r3, 8004d2e <prvIdleTask+0x2a>
 8004d10:	4b13      	ldr	r3, [pc, #76]	@ (8004d60 <prvIdleTask+0x5c>)
 8004d12:	681b      	ldr	r3, [r3, #0]
 8004d14:	2b01      	cmp	r3, #1
 8004d16:	d9f8      	bls.n	8004d0a <prvIdleTask+0x6>
 8004d18:	f04f 23e0 	mov.w	r3, #3758153728	@ 0xe000e000
 8004d1c:	f04f 5280 	mov.w	r2, #268435456	@ 0x10000000
 8004d20:	f8c3 2d04 	str.w	r2, [r3, #3332]	@ 0xd04
 8004d24:	f3bf 8f4f 	dsb	sy
 8004d28:	f3bf 8f6f 	isb	sy
 8004d2c:	e7ed      	b.n	8004d0a <prvIdleTask+0x6>
 8004d2e:	f000 fad9 	bl	80052e4 <vPortEnterCritical>
 8004d32:	68fb      	ldr	r3, [r7, #12]
 8004d34:	68de      	ldr	r6, [r3, #12]
 8004d36:	1d30      	adds	r0, r6, #4
 8004d38:	f7ff fee3 	bl	8004b02 <uxListRemove>
 8004d3c:	682b      	ldr	r3, [r5, #0]
 8004d3e:	3b01      	subs	r3, #1
 8004d40:	602b      	str	r3, [r5, #0]
 8004d42:	6823      	ldr	r3, [r4, #0]
 8004d44:	3b01      	subs	r3, #1
 8004d46:	6023      	str	r3, [r4, #0]
 8004d48:	f000 faec 	bl	8005324 <vPortExitCritical>
 8004d4c:	4630      	mov	r0, r6
 8004d4e:	f7ff ffbd 	bl	8004ccc <prvDeleteTCB>
 8004d52:	e7db      	b.n	8004d0c <prvIdleTask+0x8>
 8004d54:	2000081c 	.word	0x2000081c
 8004d58:	20000820 	.word	0x20000820
 8004d5c:	20000804 	.word	0x20000804
 8004d60:	20000878 	.word	0x20000878

08004d64 <prvInitialiseNewTask.constprop.0>:
 8004d64:	e92d 47f0 	stmdb	sp!, {r4, r5, r6, r7, r8, r9, sl, lr}
 8004d68:	f102 4280 	add.w	r2, r2, #1073741824	@ 0x40000000
 8004d6c:	e9dd 8409 	ldrd	r8, r4, [sp, #36]	@ 0x24
 8004d70:	6b26      	ldr	r6, [r4, #48]	@ 0x30
 8004d72:	3a01      	subs	r2, #1
 8004d74:	eb06 0682 	add.w	r6, r6, r2, lsl #2
 8004d78:	4607      	mov	r7, r0
 8004d7a:	4699      	mov	r9, r3
 8004d7c:	f026 0607 	bic.w	r6, r6, #7
 8004d80:	b3a1      	cbz	r1, 8004dec <prvInitialiseNewTask.constprop.0+0x88>
 8004d82:	1e4b      	subs	r3, r1, #1
 8004d84:	f104 0233 	add.w	r2, r4, #51	@ 0x33
 8004d88:	310f      	adds	r1, #15
 8004d8a:	f813 0f01 	ldrb.w	r0, [r3, #1]!
 8004d8e:	f802 0f01 	strb.w	r0, [r2, #1]!
 8004d92:	b108      	cbz	r0, 8004d98 <prvInitialiseNewTask.constprop.0+0x34>
 8004d94:	428b      	cmp	r3, r1
 8004d96:	d1f8      	bne.n	8004d8a <prvInitialiseNewTask.constprop.0+0x26>
 8004d98:	2300      	movs	r3, #0
 8004d9a:	f884 3043 	strb.w	r3, [r4, #67]	@ 0x43
 8004d9e:	9d08      	ldr	r5, [sp, #32]
 8004da0:	f04f 0a00 	mov.w	sl, #0
 8004da4:	2d06      	cmp	r5, #6
 8004da6:	bf28      	it	cs
 8004da8:	2506      	movcs	r5, #6
 8004daa:	1d20      	adds	r0, r4, #4
 8004dac:	62e5      	str	r5, [r4, #44]	@ 0x2c
 8004dae:	6465      	str	r5, [r4, #68]	@ 0x44
 8004db0:	f8c4 a048 	str.w	sl, [r4, #72]	@ 0x48
 8004db4:	f7ff fe80 	bl	8004ab8 <vListInitialiseItem>
 8004db8:	f1c5 0507 	rsb	r5, r5, #7
 8004dbc:	f104 0018 	add.w	r0, r4, #24
 8004dc0:	f7ff fe7a 	bl	8004ab8 <vListInitialiseItem>
 8004dc4:	f8c4 a04c 	str.w	sl, [r4, #76]	@ 0x4c
 8004dc8:	464a      	mov	r2, r9
 8004dca:	4639      	mov	r1, r7
 8004dcc:	4630      	mov	r0, r6
 8004dce:	6124      	str	r4, [r4, #16]
 8004dd0:	61a5      	str	r5, [r4, #24]
 8004dd2:	6264      	str	r4, [r4, #36]	@ 0x24
 8004dd4:	f884 a050 	strb.w	sl, [r4, #80]	@ 0x50
 8004dd8:	f000 fa60 	bl	800529c <pxPortInitialiseStack>
 8004ddc:	6020      	str	r0, [r4, #0]
 8004dde:	f1b8 0f00 	cmp.w	r8, #0
 8004de2:	d001      	beq.n	8004de8 <prvInitialiseNewTask.constprop.0+0x84>
 8004de4:	f8c8 4000 	str.w	r4, [r8]
 8004de8:	e8bd 87f0 	ldmia.w	sp!, {r4, r5, r6, r7, r8, r9, sl, pc}
 8004dec:	f884 1034 	strb.w	r1, [r4, #52]	@ 0x34
 8004df0:	e7d5      	b.n	8004d9e <prvInitialiseNewTask.constprop.0+0x3a>

08004df2 <xTaskCreateStatic>:
 8004df2:	b570      	push	{r4, r5, r6, lr}
 8004df4:	b086      	sub	sp, #24
 8004df6:	e9dd 540b 	ldrd	r5, r4, [sp, #44]	@ 0x2c
 8004dfa:	b945      	cbnz	r5, 8004e0e <xTaskCreateStatic+0x1c>
 8004dfc:	f04f 0350 	mov.w	r3, #80	@ 0x50
 8004e00:	f383 8811 	msr	BASEPRI, r3
 8004e04:	f3bf 8f6f 	isb	sy
 8004e08:	f3bf 8f4f 	dsb	sy
 8004e0c:	e7fe      	b.n	8004e0c <xTaskCreateStatic+0x1a>
 8004e0e:	b944      	cbnz	r4, 8004e22 <xTaskCreateStatic+0x30>
 8004e10:	f04f 0350 	mov.w	r3, #80	@ 0x50
 8004e14:	f383 8811 	msr	BASEPRI, r3
 8004e18:	f3bf 8f6f 	isb	sy
 8004e1c:	f3bf 8f4f 	dsb	sy
 8004e20:	e7fe      	b.n	8004e20 <xTaskCreateStatic+0x2e>
 8004e22:	2654      	movs	r6, #84	@ 0x54
 8004e24:	9605      	str	r6, [sp, #20]
 8004e26:	9e05      	ldr	r6, [sp, #20]
 8004e28:	2e54      	cmp	r6, #84	@ 0x54
 8004e2a:	d008      	beq.n	8004e3e <xTaskCreateStatic+0x4c>
 8004e2c:	f04f 0350 	mov.w	r3, #80	@ 0x50
 8004e30:	f383 8811 	msr	BASEPRI, r3
 8004e34:	f3bf 8f6f 	isb	sy
 8004e38:	f3bf 8f4f 	dsb	sy
 8004e3c:	e7fe      	b.n	8004e3c <xTaskCreateStatic+0x4a>
 8004e3e:	6325      	str	r5, [r4, #48]	@ 0x30
 8004e40:	2502      	movs	r5, #2
 8004e42:	f884 5051 	strb.w	r5, [r4, #81]	@ 0x51
 8004e46:	ad04      	add	r5, sp, #16
 8004e48:	9501      	str	r5, [sp, #4]
 8004e4a:	9d0a      	ldr	r5, [sp, #40]	@ 0x28
 8004e4c:	9402      	str	r4, [sp, #8]
 8004e4e:	9500      	str	r5, [sp, #0]
 8004e50:	9e05      	ldr	r6, [sp, #20]
 8004e52:	f7ff ff87 	bl	8004d64 <prvInitialiseNewTask.constprop.0>
 8004e56:	4620      	mov	r0, r4
 8004e58:	f7ff fe64 	bl	8004b24 <prvAddNewTaskToReadyList>
 8004e5c:	9804      	ldr	r0, [sp, #16]
 8004e5e:	b006      	add	sp, #24
 8004e60:	bd70      	pop	{r4, r5, r6, pc}

08004e62 <xTaskCreate>:
 8004e62:	e92d 43f0 	stmdb	sp!, {r4, r5, r6, r7, r8, r9, lr}
 8004e66:	4607      	mov	r7, r0
 8004e68:	b085      	sub	sp, #20
 8004e6a:	0090      	lsls	r0, r2, #2
 8004e6c:	4688      	mov	r8, r1
 8004e6e:	4616      	mov	r6, r2
 8004e70:	4699      	mov	r9, r3
 8004e72:	f000 fb35 	bl	80054e0 <pvPortMalloc>
 8004e76:	4605      	mov	r5, r0
 8004e78:	b920      	cbnz	r0, 8004e84 <xTaskCreate+0x22>
 8004e7a:	f04f 30ff 	mov.w	r0, #4294967295
 8004e7e:	b005      	add	sp, #20
 8004e80:	e8bd 83f0 	ldmia.w	sp!, {r4, r5, r6, r7, r8, r9, pc}
 8004e84:	2054      	movs	r0, #84	@ 0x54
 8004e86:	f000 fb2b 	bl	80054e0 <pvPortMalloc>
 8004e8a:	4604      	mov	r4, r0
 8004e8c:	b198      	cbz	r0, 8004eb6 <xTaskCreate+0x54>
 8004e8e:	2300      	movs	r3, #0
 8004e90:	f880 3051 	strb.w	r3, [r0, #81]	@ 0x51
 8004e94:	9b0d      	ldr	r3, [sp, #52]	@ 0x34
 8004e96:	6305      	str	r5, [r0, #48]	@ 0x30
 8004e98:	9301      	str	r3, [sp, #4]
 8004e9a:	9b0c      	ldr	r3, [sp, #48]	@ 0x30
 8004e9c:	4632      	mov	r2, r6
 8004e9e:	4641      	mov	r1, r8
 8004ea0:	9002      	str	r0, [sp, #8]
 8004ea2:	9300      	str	r3, [sp, #0]
 8004ea4:	4638      	mov	r0, r7
 8004ea6:	464b      	mov	r3, r9
 8004ea8:	f7ff ff5c 	bl	8004d64 <prvInitialiseNewTask.constprop.0>
 8004eac:	4620      	mov	r0, r4
 8004eae:	f7ff fe39 	bl	8004b24 <prvAddNewTaskToReadyList>
 8004eb2:	2001      	movs	r0, #1
 8004eb4:	e7e3      	b.n	8004e7e <xTaskCreate+0x1c>
 8004eb6:	4628      	mov	r0, r5
 8004eb8:	f000 fbaa 	bl	8005610 <vPortFree>
 8004ebc:	e7dd      	b.n	8004e7a <xTaskCreate+0x18>
	...

08004ec0 <vTaskStartScheduler>:
 8004ec0:	b510      	push	{r4, lr}
 8004ec2:	2400      	movs	r4, #0
 8004ec4:	b088      	sub	sp, #32
 8004ec6:	aa07      	add	r2, sp, #28
 8004ec8:	a906      	add	r1, sp, #24
 8004eca:	a805      	add	r0, sp, #20
 8004ecc:	e9cd 4405 	strd	r4, r4, [sp, #20]
 8004ed0:	f7fc f8a2 	bl	8001018 <vApplicationGetIdleTaskMemory>
 8004ed4:	9b05      	ldr	r3, [sp, #20]
 8004ed6:	9a07      	ldr	r2, [sp, #28]
 8004ed8:	9302      	str	r3, [sp, #8]
 8004eda:	9b06      	ldr	r3, [sp, #24]
 8004edc:	490f      	ldr	r1, [pc, #60]	@ (8004f1c <vTaskStartScheduler+0x5c>)
 8004ede:	e9cd 4300 	strd	r4, r3, [sp]
 8004ee2:	480f      	ldr	r0, [pc, #60]	@ (8004f20 <vTaskStartScheduler+0x60>)
 8004ee4:	4623      	mov	r3, r4
 8004ee6:	f7ff ff84 	bl	8004df2 <xTaskCreateStatic>
 8004eea:	b1a8      	cbz	r0, 8004f18 <vTaskStartScheduler+0x58>
 8004eec:	f04f 0350 	mov.w	r3, #80	@ 0x50
 8004ef0:	f383 8811 	msr	BASEPRI, r3
 8004ef4:	f3bf 8f6f 	isb	sy
 8004ef8:	f3bf 8f4f 	dsb	sy
 8004efc:	f04f 32ff 	mov.w	r2, #4294967295
 8004f00:	4b08      	ldr	r3, [pc, #32]	@ (8004f24 <vTaskStartScheduler+0x64>)
 8004f02:	601a      	str	r2, [r3, #0]
 8004f04:	2201      	movs	r2, #1
 8004f06:	4b08      	ldr	r3, [pc, #32]	@ (8004f28 <vTaskStartScheduler+0x68>)
 8004f08:	601a      	str	r2, [r3, #0]
 8004f0a:	4b08      	ldr	r3, [pc, #32]	@ (8004f2c <vTaskStartScheduler+0x6c>)
 8004f0c:	601c      	str	r4, [r3, #0]
 8004f0e:	b008      	add	sp, #32
 8004f10:	e8bd 4010 	ldmia.w	sp!, {r4, lr}
 8004f14:	f000 ba66 	b.w	80053e4 <xPortStartScheduler>
 8004f18:	b008      	add	sp, #32
 8004f1a:	bd10      	pop	{r4, pc}
 8004f1c:	08005795 	.word	0x08005795
 8004f20:	08004d05 	.word	0x08004d05
 8004f24:	200007e4 	.word	0x200007e4
 8004f28:	200007f8 	.word	0x200007f8
 8004f2c:	20000800 	.word	0x20000800

08004f30 <vTaskSuspendAll>:
 8004f30:	4a02      	ldr	r2, [pc, #8]	@ (8004f3c <vTaskSuspendAll+0xc>)
 8004f32:	6813      	ldr	r3, [r2, #0]
 8004f34:	3301      	adds	r3, #1
 8004f36:	6013      	str	r3, [r2, #0]
 8004f38:	4770      	bx	lr
 8004f3a:	bf00      	nop
 8004f3c:	200007e0 	.word	0x200007e0

08004f40 <xTaskIncrementTick>:
 8004f40:	4b41      	ldr	r3, [pc, #260]	@ (8005048 <xTaskIncrementTick+0x108>)
 8004f42:	e92d 4ff7 	stmdb	sp!, {r0, r1, r2, r4, r5, r6, r7, r8, r9, sl, fp, lr}
 8004f46:	681b      	ldr	r3, [r3, #0]
 8004f48:	2b00      	cmp	r3, #0
 8004f4a:	d176      	bne.n	800503a <xTaskIncrementTick+0xfa>
 8004f4c:	4b3f      	ldr	r3, [pc, #252]	@ (800504c <xTaskIncrementTick+0x10c>)
 8004f4e:	681c      	ldr	r4, [r3, #0]
 8004f50:	3401      	adds	r4, #1
 8004f52:	601c      	str	r4, [r3, #0]
 8004f54:	b9bc      	cbnz	r4, 8004f86 <xTaskIncrementTick+0x46>
 8004f56:	4b3e      	ldr	r3, [pc, #248]	@ (8005050 <xTaskIncrementTick+0x110>)
 8004f58:	681a      	ldr	r2, [r3, #0]
 8004f5a:	6812      	ldr	r2, [r2, #0]
 8004f5c:	b142      	cbz	r2, 8004f70 <xTaskIncrementTick+0x30>
 8004f5e:	f04f 0350 	mov.w	r3, #80	@ 0x50
 8004f62:	f383 8811 	msr	BASEPRI, r3
 8004f66:	f3bf 8f6f 	isb	sy
 8004f6a:	f3bf 8f4f 	dsb	sy
 8004f6e:	e7fe      	b.n	8004f6e <xTaskIncrementTick+0x2e>
 8004f70:	4a38      	ldr	r2, [pc, #224]	@ (8005054 <xTaskIncrementTick+0x114>)
 8004f72:	6819      	ldr	r1, [r3, #0]
 8004f74:	6810      	ldr	r0, [r2, #0]
 8004f76:	6018      	str	r0, [r3, #0]
 8004f78:	6011      	str	r1, [r2, #0]
 8004f7a:	4a37      	ldr	r2, [pc, #220]	@ (8005058 <xTaskIncrementTick+0x118>)
 8004f7c:	6813      	ldr	r3, [r2, #0]
 8004f7e:	3301      	adds	r3, #1
 8004f80:	6013      	str	r3, [r2, #0]
 8004f82:	f7ff fe91 	bl	8004ca8 <prvResetNextTaskUnblockTime>
 8004f86:	4d35      	ldr	r5, [pc, #212]	@ (800505c <xTaskIncrementTick+0x11c>)
 8004f88:	f04f 0b00 	mov.w	fp, #0
 8004f8c:	682b      	ldr	r3, [r5, #0]
 8004f8e:	4e34      	ldr	r6, [pc, #208]	@ (8005060 <xTaskIncrementTick+0x120>)
 8004f90:	429c      	cmp	r4, r3
 8004f92:	4f34      	ldr	r7, [pc, #208]	@ (8005064 <xTaskIncrementTick+0x124>)
 8004f94:	d212      	bcs.n	8004fbc <xTaskIncrementTick+0x7c>
 8004f96:	2114      	movs	r1, #20
 8004f98:	683a      	ldr	r2, [r7, #0]
 8004f9a:	6ad2      	ldr	r2, [r2, #44]	@ 0x2c
 8004f9c:	434a      	muls	r2, r1
 8004f9e:	58b2      	ldr	r2, [r6, r2]
 8004fa0:	2a02      	cmp	r2, #2
 8004fa2:	4a31      	ldr	r2, [pc, #196]	@ (8005068 <xTaskIncrementTick+0x128>)
 8004fa4:	bf28      	it	cs
 8004fa6:	f04f 0b01 	movcs.w	fp, #1
 8004faa:	6812      	ldr	r2, [r2, #0]
 8004fac:	2a00      	cmp	r2, #0
 8004fae:	bf18      	it	ne
 8004fb0:	f04f 0b01 	movne.w	fp, #1
 8004fb4:	4658      	mov	r0, fp
 8004fb6:	b003      	add	sp, #12
 8004fb8:	e8bd 8ff0 	ldmia.w	sp!, {r4, r5, r6, r7, r8, r9, sl, fp, pc}
 8004fbc:	f8df a090 	ldr.w	sl, [pc, #144]	@ 8005050 <xTaskIncrementTick+0x110>
 8004fc0:	f8df 90a8 	ldr.w	r9, [pc, #168]	@ 800506c <xTaskIncrementTick+0x12c>
 8004fc4:	f8da 2000 	ldr.w	r2, [sl]
 8004fc8:	6812      	ldr	r2, [r2, #0]
 8004fca:	b91a      	cbnz	r2, 8004fd4 <xTaskIncrementTick+0x94>
 8004fcc:	f04f 32ff 	mov.w	r2, #4294967295
 8004fd0:	602a      	str	r2, [r5, #0]
 8004fd2:	e7e0      	b.n	8004f96 <xTaskIncrementTick+0x56>
 8004fd4:	f8da 2000 	ldr.w	r2, [sl]
 8004fd8:	68d2      	ldr	r2, [r2, #12]
 8004fda:	f8d2 800c 	ldr.w	r8, [r2, #12]
 8004fde:	f8d8 1004 	ldr.w	r1, [r8, #4]
 8004fe2:	428c      	cmp	r4, r1
 8004fe4:	d201      	bcs.n	8004fea <xTaskIncrementTick+0xaa>
 8004fe6:	6029      	str	r1, [r5, #0]
 8004fe8:	e7d5      	b.n	8004f96 <xTaskIncrementTick+0x56>
 8004fea:	f108 0304 	add.w	r3, r8, #4
 8004fee:	4618      	mov	r0, r3
 8004ff0:	9301      	str	r3, [sp, #4]
 8004ff2:	f7ff fd86 	bl	8004b02 <uxListRemove>
 8004ff6:	f8d8 1028 	ldr.w	r1, [r8, #40]	@ 0x28
 8004ffa:	b119      	cbz	r1, 8005004 <xTaskIncrementTick+0xc4>
 8004ffc:	f108 0018 	add.w	r0, r8, #24
 8005000:	f7ff fd7f 	bl	8004b02 <uxListRemove>
 8005004:	2201      	movs	r2, #1
 8005006:	f04f 0c14 	mov.w	ip, #20
 800500a:	f8d8 002c 	ldr.w	r0, [r8, #44]	@ 0x2c
 800500e:	f8d9 3000 	ldr.w	r3, [r9]
 8005012:	fa02 f100 	lsl.w	r1, r2, r0
 8005016:	4319      	orrs	r1, r3
 8005018:	fb0c 6000 	mla	r0, ip, r0, r6
 800501c:	f8c9 1000 	str.w	r1, [r9]
 8005020:	f108 0104 	add.w	r1, r8, #4
 8005024:	f7ff fd4b 	bl	8004abe <vListInsertEnd>
 8005028:	6838      	ldr	r0, [r7, #0]
 800502a:	f8d8 102c 	ldr.w	r1, [r8, #44]	@ 0x2c
 800502e:	6ac2      	ldr	r2, [r0, #44]	@ 0x2c
 8005030:	4291      	cmp	r1, r2
 8005032:	bf28      	it	cs
 8005034:	f04f 0b01 	movcs.w	fp, #1
 8005038:	e7c4      	b.n	8004fc4 <xTaskIncrementTick+0x84>
 800503a:	4a0d      	ldr	r2, [pc, #52]	@ (8005070 <xTaskIncrementTick+0x130>)
 800503c:	f04f 0b00 	mov.w	fp, #0
 8005040:	6813      	ldr	r3, [r2, #0]
 8005042:	3301      	adds	r3, #1
 8005044:	6013      	str	r3, [r2, #0]
 8005046:	e7b5      	b.n	8004fb4 <xTaskIncrementTick+0x74>
 8005048:	200007e0 	.word	0x200007e0
 800504c:	20000800 	.word	0x20000800
 8005050:	2000084c 	.word	0x2000084c
 8005054:	20000848 	.word	0x20000848
 8005058:	200007ec 	.word	0x200007ec
 800505c:	200007e4 	.word	0x200007e4
 8005060:	20000878 	.word	0x20000878
 8005064:	20000904 	.word	0x20000904
 8005068:	200007f0 	.word	0x200007f0
 800506c:	200007fc 	.word	0x200007fc
 8005070:	200007f4 	.word	0x200007f4

08005074 <xTaskResumeAll>:
 8005074:	e92d 43f8 	stmdb	sp!, {r3, r4, r5, r6, r7, r8, r9, lr}
 8005078:	4c31      	ldr	r4, [pc, #196]	@ (8005140 <xTaskResumeAll+0xcc>)
 800507a:	6823      	ldr	r3, [r4, #0]
 800507c:	b943      	cbnz	r3, 8005090 <xTaskResumeAll+0x1c>
 800507e:	f04f 0350 	mov.w	r3, #80	@ 0x50
 8005082:	f383 8811 	msr	BASEPRI, r3
 8005086:	f3bf 8f6f 	isb	sy
 800508a:	f3bf 8f4f 	dsb	sy
 800508e:	e7fe      	b.n	800508e <xTaskResumeAll+0x1a>
 8005090:	f000 f928 	bl	80052e4 <vPortEnterCritical>
 8005094:	6823      	ldr	r3, [r4, #0]
 8005096:	3b01      	subs	r3, #1
 8005098:	6023      	str	r3, [r4, #0]
 800509a:	6824      	ldr	r4, [r4, #0]
 800509c:	b12c      	cbz	r4, 80050aa <xTaskResumeAll+0x36>
 800509e:	2400      	movs	r4, #0
 80050a0:	f000 f940 	bl	8005324 <vPortExitCritical>
 80050a4:	4620      	mov	r0, r4
 80050a6:	e8bd 83f8 	ldmia.w	sp!, {r3, r4, r5, r6, r7, r8, r9, pc}
 80050aa:	4b26      	ldr	r3, [pc, #152]	@ (8005144 <xTaskResumeAll+0xd0>)
 80050ac:	681b      	ldr	r3, [r3, #0]
 80050ae:	2b00      	cmp	r3, #0
 80050b0:	d0f5      	beq.n	800509e <xTaskResumeAll+0x2a>
 80050b2:	4d25      	ldr	r5, [pc, #148]	@ (8005148 <xTaskResumeAll+0xd4>)
 80050b4:	4e25      	ldr	r6, [pc, #148]	@ (800514c <xTaskResumeAll+0xd8>)
 80050b6:	f8df 8098 	ldr.w	r8, [pc, #152]	@ 8005150 <xTaskResumeAll+0xdc>
 80050ba:	e01f      	b.n	80050fc <xTaskResumeAll+0x88>
 80050bc:	68eb      	ldr	r3, [r5, #12]
 80050be:	2701      	movs	r7, #1
 80050c0:	68dc      	ldr	r4, [r3, #12]
 80050c2:	f104 0904 	add.w	r9, r4, #4
 80050c6:	f104 0018 	add.w	r0, r4, #24
 80050ca:	f7ff fd1a 	bl	8004b02 <uxListRemove>
 80050ce:	4648      	mov	r0, r9
 80050d0:	f7ff fd17 	bl	8004b02 <uxListRemove>
 80050d4:	2014      	movs	r0, #20
 80050d6:	6ae2      	ldr	r2, [r4, #44]	@ 0x2c
 80050d8:	6831      	ldr	r1, [r6, #0]
 80050da:	fa07 f302 	lsl.w	r3, r7, r2
 80050de:	430b      	orrs	r3, r1
 80050e0:	fb00 8002 	mla	r0, r0, r2, r8
 80050e4:	4649      	mov	r1, r9
 80050e6:	6033      	str	r3, [r6, #0]
 80050e8:	f7ff fce9 	bl	8004abe <vListInsertEnd>
 80050ec:	4b19      	ldr	r3, [pc, #100]	@ (8005154 <xTaskResumeAll+0xe0>)
 80050ee:	6ae2      	ldr	r2, [r4, #44]	@ 0x2c
 80050f0:	681b      	ldr	r3, [r3, #0]
 80050f2:	6adb      	ldr	r3, [r3, #44]	@ 0x2c
 80050f4:	429a      	cmp	r2, r3
 80050f6:	d301      	bcc.n	80050fc <xTaskResumeAll+0x88>
 80050f8:	4b17      	ldr	r3, [pc, #92]	@ (8005158 <xTaskResumeAll+0xe4>)
 80050fa:	601f      	str	r7, [r3, #0]
 80050fc:	682b      	ldr	r3, [r5, #0]
 80050fe:	2b00      	cmp	r3, #0
 8005100:	d1dc      	bne.n	80050bc <xTaskResumeAll+0x48>
 8005102:	b10c      	cbz	r4, 8005108 <xTaskResumeAll+0x94>
 8005104:	f7ff fdd0 	bl	8004ca8 <prvResetNextTaskUnblockTime>
 8005108:	4d14      	ldr	r5, [pc, #80]	@ (800515c <xTaskResumeAll+0xe8>)
 800510a:	682c      	ldr	r4, [r5, #0]
 800510c:	b144      	cbz	r4, 8005120 <xTaskResumeAll+0xac>
 800510e:	2701      	movs	r7, #1
 8005110:	4e11      	ldr	r6, [pc, #68]	@ (8005158 <xTaskResumeAll+0xe4>)
 8005112:	f7ff ff15 	bl	8004f40 <xTaskIncrementTick>
 8005116:	b100      	cbz	r0, 800511a <xTaskResumeAll+0xa6>
 8005118:	6037      	str	r7, [r6, #0]
 800511a:	3c01      	subs	r4, #1
 800511c:	d1f9      	bne.n	8005112 <xTaskResumeAll+0x9e>
 800511e:	602c      	str	r4, [r5, #0]
 8005120:	4b0d      	ldr	r3, [pc, #52]	@ (8005158 <xTaskResumeAll+0xe4>)
 8005122:	681b      	ldr	r3, [r3, #0]
 8005124:	2b00      	cmp	r3, #0
 8005126:	d0ba      	beq.n	800509e <xTaskResumeAll+0x2a>
 8005128:	f04f 23e0 	mov.w	r3, #3758153728	@ 0xe000e000
 800512c:	f04f 5280 	mov.w	r2, #268435456	@ 0x10000000
 8005130:	f8c3 2d04 	str.w	r2, [r3, #3332]	@ 0xd04
 8005134:	f3bf 8f4f 	dsb	sy
 8005138:	f3bf 8f6f 	isb	sy
 800513c:	2401      	movs	r4, #1
 800513e:	e7af      	b.n	80050a0 <xTaskResumeAll+0x2c>
 8005140:	200007e0 	.word	0x200007e0
 8005144:	20000804 	.word	0x20000804
 8005148:	20000834 	.word	0x20000834
 800514c:	200007fc 	.word	0x200007fc
 8005150:	20000878 	.word	0x20000878
 8005154:	20000904 	.word	0x20000904
 8005158:	200007f0 	.word	0x200007f0
 800515c:	200007f4 	.word	0x200007f4

08005160 <vTaskDelay>:
 8005160:	b508      	push	{r3, lr}
 8005162:	b950      	cbnz	r0, 800517a <vTaskDelay+0x1a>
 8005164:	f04f 23e0 	mov.w	r3, #3758153728	@ 0xe000e000
 8005168:	f04f 5280 	mov.w	r2, #268435456	@ 0x10000000
 800516c:	f8c3 2d04 	str.w	r2, [r3, #3332]	@ 0xd04
 8005170:	f3bf 8f4f 	dsb	sy
 8005174:	f3bf 8f6f 	isb	sy
 8005178:	bd08      	pop	{r3, pc}
 800517a:	4b0a      	ldr	r3, [pc, #40]	@ (80051a4 <vTaskDelay+0x44>)
 800517c:	6819      	ldr	r1, [r3, #0]
 800517e:	b141      	cbz	r1, 8005192 <vTaskDelay+0x32>
 8005180:	f04f 0350 	mov.w	r3, #80	@ 0x50
 8005184:	f383 8811 	msr	BASEPRI, r3
 8005188:	f3bf 8f6f 	isb	sy
 800518c:	f3bf 8f4f 	dsb	sy
 8005190:	e7fe      	b.n	8005190 <vTaskDelay+0x30>
 8005192:	f7ff fecd 	bl	8004f30 <vTaskSuspendAll>
 8005196:	f7ff fd43 	bl	8004c20 <prvAddCurrentTaskToDelayedList>
 800519a:	f7ff ff6b 	bl	8005074 <xTaskResumeAll>
 800519e:	2800      	cmp	r0, #0
 80051a0:	d0e0      	beq.n	8005164 <vTaskDelay+0x4>
 80051a2:	e7e9      	b.n	8005178 <vTaskDelay+0x18>
 80051a4:	200007e0 	.word	0x200007e0

080051a8 <vTaskSwitchContext>:
 80051a8:	4b17      	ldr	r3, [pc, #92]	@ (8005208 <vTaskSwitchContext+0x60>)
 80051aa:	b510      	push	{r4, lr}
 80051ac:	681a      	ldr	r2, [r3, #0]
 80051ae:	4b17      	ldr	r3, [pc, #92]	@ (800520c <vTaskSwitchContext+0x64>)
 80051b0:	b112      	cbz	r2, 80051b8 <vTaskSwitchContext+0x10>
 80051b2:	2201      	movs	r2, #1
 80051b4:	601a      	str	r2, [r3, #0]
 80051b6:	bd10      	pop	{r4, pc}
 80051b8:	601a      	str	r2, [r3, #0]
 80051ba:	4b15      	ldr	r3, [pc, #84]	@ (8005210 <vTaskSwitchContext+0x68>)
 80051bc:	681a      	ldr	r2, [r3, #0]
 80051be:	fab2 f282 	clz	r2, r2
 80051c2:	2314      	movs	r3, #20
 80051c4:	b2d2      	uxtb	r2, r2
 80051c6:	f1c2 021f 	rsb	r2, r2, #31
 80051ca:	4353      	muls	r3, r2
 80051cc:	4911      	ldr	r1, [pc, #68]	@ (8005214 <vTaskSwitchContext+0x6c>)
 80051ce:	58cc      	ldr	r4, [r1, r3]
 80051d0:	18c8      	adds	r0, r1, r3
 80051d2:	b944      	cbnz	r4, 80051e6 <vTaskSwitchContext+0x3e>
 80051d4:	f04f 0350 	mov.w	r3, #80	@ 0x50
 80051d8:	f383 8811 	msr	BASEPRI, r3
 80051dc:	f3bf 8f6f 	isb	sy
 80051e0:	f3bf 8f4f 	dsb	sy
 80051e4:	e7fe      	b.n	80051e4 <vTaskSwitchContext+0x3c>
 80051e6:	6844      	ldr	r4, [r0, #4]
 80051e8:	3308      	adds	r3, #8
 80051ea:	6864      	ldr	r4, [r4, #4]
 80051ec:	440b      	add	r3, r1
 80051ee:	429c      	cmp	r4, r3
 80051f0:	bf08      	it	eq
 80051f2:	6863      	ldreq	r3, [r4, #4]
 80051f4:	6044      	str	r4, [r0, #4]
 80051f6:	bf08      	it	eq
 80051f8:	6043      	streq	r3, [r0, #4]
 80051fa:	2314      	movs	r3, #20
 80051fc:	fb03 1102 	mla	r1, r3, r2, r1
 8005200:	684b      	ldr	r3, [r1, #4]
 8005202:	68da      	ldr	r2, [r3, #12]
 8005204:	4b04      	ldr	r3, [pc, #16]	@ (8005218 <vTaskSwitchContext+0x70>)
 8005206:	e7d5      	b.n	80051b4 <vTaskSwitchContext+0xc>
 8005208:	200007e0 	.word	0x200007e0
 800520c:	200007f0 	.word	0x200007f0
 8005210:	200007fc 	.word	0x200007fc
 8005214:	20000878 	.word	0x20000878
 8005218:	20000904 	.word	0x20000904

0800521c <xTaskGetSchedulerState>:
 800521c:	4b05      	ldr	r3, [pc, #20]	@ (8005234 <xTaskGetSchedulerState+0x18>)
 800521e:	681b      	ldr	r3, [r3, #0]
 8005220:	b133      	cbz	r3, 8005230 <xTaskGetSchedulerState+0x14>
 8005222:	4b05      	ldr	r3, [pc, #20]	@ (8005238 <xTaskGetSchedulerState+0x1c>)
 8005224:	6818      	ldr	r0, [r3, #0]
 8005226:	fab0 f080 	clz	r0, r0
 800522a:	0940      	lsrs	r0, r0, #5
 800522c:	0040      	lsls	r0, r0, #1
 800522e:	4770      	bx	lr
 8005230:	2001      	movs	r0, #1
 8005232:	4770      	bx	lr
 8005234:	200007f8 	.word	0x200007f8
 8005238:	200007e0 	.word	0x200007e0

0800523c <prvPortStartFirstTask>:
 800523c:	4806      	ldr	r0, [pc, #24]	@ (8005258 <prvPortStartFirstTask+0x1c>)
 800523e:	6800      	ldr	r0, [r0, #0]
 8005240:	6800      	ldr	r0, [r0, #0]
 8005242:	f380 8808 	msr	MSP, r0
 8005246:	b662      	cpsie	i
 8005248:	b661      	cpsie	f
 800524a:	f3bf 8f4f 	dsb	sy
 800524e:	f3bf 8f6f 	isb	sy
 8005252:	df00      	svc	0
 8005254:	bf00      	nop
 8005256:	0000      	.short	0x0000
 8005258:	e000ed08 	.word	0xe000ed08

0800525c <prvTaskExitError>:
 800525c:	2300      	movs	r3, #0
 800525e:	b082      	sub	sp, #8
 8005260:	9301      	str	r3, [sp, #4]
 8005262:	4b0d      	ldr	r3, [pc, #52]	@ (8005298 <prvTaskExitError+0x3c>)
 8005264:	681b      	ldr	r3, [r3, #0]
 8005266:	3301      	adds	r3, #1
 8005268:	d008      	beq.n	800527c <prvTaskExitError+0x20>
 800526a:	f04f 0350 	mov.w	r3, #80	@ 0x50
 800526e:	f383 8811 	msr	BASEPRI, r3
 8005272:	f3bf 8f6f 	isb	sy
 8005276:	f3bf 8f4f 	dsb	sy
 800527a:	e7fe      	b.n	800527a <prvTaskExitError+0x1e>
 800527c:	f04f 0350 	mov.w	r3, #80	@ 0x50
 8005280:	f383 8811 	msr	BASEPRI, r3
 8005284:	f3bf 8f6f 	isb	sy
 8005288:	f3bf 8f4f 	dsb	sy
 800528c:	9b01      	ldr	r3, [sp, #4]
 800528e:	2b00      	cmp	r3, #0
 8005290:	d0fc      	beq.n	800528c <prvTaskExitError+0x30>
 8005292:	b002      	add	sp, #8
 8005294:	4770      	bx	lr
 8005296:	bf00      	nop
 8005298:	20000018 	.word	0x20000018

0800529c <pxPortInitialiseStack>:
 800529c:	f04f 7380 	mov.w	r3, #16777216	@ 0x1000000
 80052a0:	f840 3c04 	str.w	r3, [r0, #-4]
 80052a4:	4b05      	ldr	r3, [pc, #20]	@ (80052bc <pxPortInitialiseStack+0x20>)
 80052a6:	f021 0101 	bic.w	r1, r1, #1
 80052aa:	f840 1c08 	str.w	r1, [r0, #-8]
 80052ae:	f840 3c0c 	str.w	r3, [r0, #-12]
 80052b2:	f840 2c20 	str.w	r2, [r0, #-32]
 80052b6:	3840      	subs	r0, #64	@ 0x40
 80052b8:	4770      	bx	lr
 80052ba:	bf00      	nop
 80052bc:	0800525d 	.word	0x0800525d

080052c0 <SVC_Handler>:
 80052c0:	4b07      	ldr	r3, [pc, #28]	@ (80052e0 <pxCurrentTCBConst2>)
 80052c2:	6819      	ldr	r1, [r3, #0]
 80052c4:	6808      	ldr	r0, [r1, #0]
 80052c6:	e8b0 0ff0 	ldmia.w	r0!, {r4, r5, r6, r7, r8, r9, sl, fp}
 80052ca:	f380 8809 	msr	PSP, r0
 80052ce:	f3bf 8f6f 	isb	sy
 80052d2:	f04f 0000 	mov.w	r0, #0
 80052d6:	f380 8811 	msr	BASEPRI, r0
 80052da:	f04e 0e0d 	orr.w	lr, lr, #13
 80052de:	4770      	bx	lr

080052e0 <pxCurrentTCBConst2>:
 80052e0:	20000904 	.word	0x20000904

080052e4 <vPortEnterCritical>:
 80052e4:	f04f 0350 	mov.w	r3, #80	@ 0x50
 80052e8:	f383 8811 	msr	BASEPRI, r3
 80052ec:	f3bf 8f6f 	isb	sy
 80052f0:	f3bf 8f4f 	dsb	sy
 80052f4:	4a0a      	ldr	r2, [pc, #40]	@ (8005320 <vPortEnterCritical+0x3c>)
 80052f6:	6813      	ldr	r3, [r2, #0]
 80052f8:	3301      	adds	r3, #1
 80052fa:	2b01      	cmp	r3, #1
 80052fc:	6013      	str	r3, [r2, #0]
 80052fe:	d10e      	bne.n	800531e <vPortEnterCritical+0x3a>
 8005300:	f04f 23e0 	mov.w	r3, #3758153728	@ 0xe000e000
 8005304:	f8d3 3d04 	ldr.w	r3, [r3, #3332]	@ 0xd04
 8005308:	b2db      	uxtb	r3, r3
 800530a:	b143      	cbz	r3, 800531e <vPortEnterCritical+0x3a>
 800530c:	f04f 0350 	mov.w	r3, #80	@ 0x50
 8005310:	f383 8811 	msr	BASEPRI, r3
 8005314:	f3bf 8f6f 	isb	sy
 8005318:	f3bf 8f4f 	dsb	sy
 800531c:	e7fe      	b.n	800531c <vPortEnterCritical+0x38>
 800531e:	4770      	bx	lr
 8005320:	20000018 	.word	0x20000018

08005324 <vPortExitCritical>:
 8005324:	4a08      	ldr	r2, [pc, #32]	@ (8005348 <vPortExitCritical+0x24>)
 8005326:	6813      	ldr	r3, [r2, #0]
 8005328:	b943      	cbnz	r3, 800533c <vPortExitCritical+0x18>
 800532a:	f04f 0350 	mov.w	r3, #80	@ 0x50
 800532e:	f383 8811 	msr	BASEPRI, r3
 8005332:	f3bf 8f6f 	isb	sy
 8005336:	f3bf 8f4f 	dsb	sy
 800533a:	e7fe      	b.n	800533a <vPortExitCritical+0x16>
 800533c:	3b01      	subs	r3, #1
 800533e:	6013      	str	r3, [r2, #0]
 8005340:	b90b      	cbnz	r3, 8005346 <vPortExitCritical+0x22>
 8005342:	f383 8811 	msr	BASEPRI, r3
 8005346:	4770      	bx	lr
 8005348:	20000018 	.word	0x20000018
 800534c:	00000000 	.word	0x00000000

08005350 <PendSV_Handler>:
 8005350:	f3ef 8009 	mrs	r0, PSP
 8005354:	f3bf 8f6f 	isb	sy
 8005358:	4b0d      	ldr	r3, [pc, #52]	@ (8005390 <pxCurrentTCBConst>)
 800535a:	681a      	ldr	r2, [r3, #0]
 800535c:	e920 0ff0 	stmdb	r0!, {r4, r5, r6, r7, r8, r9, sl, fp}
 8005360:	6010      	str	r0, [r2, #0]
 8005362:	e92d 4008 	stmdb	sp!, {r3, lr}
 8005366:	f04f 0050 	mov.w	r0, #80	@ 0x50
 800536a:	f380 8811 	msr	BASEPRI, r0
 800536e:	f7ff ff1b 	bl	80051a8 <vTaskSwitchContext>
 8005372:	f04f 0000 	mov.w	r0, #0
 8005376:	f380 8811 	msr	BASEPRI, r0
 800537a:	e8bd 4008 	ldmia.w	sp!, {r3, lr}
 800537e:	6819      	ldr	r1, [r3, #0]
 8005380:	6808      	ldr	r0, [r1, #0]
 8005382:	e8b0 0ff0 	ldmia.w	r0!, {r4, r5, r6, r7, r8, r9, sl, fp}
 8005386:	f380 8809 	msr	PSP, r0
 800538a:	f3bf 8f6f 	isb	sy
 800538e:	4770      	bx	lr

08005390 <pxCurrentTCBConst>:
 8005390:	20000904 	.word	0x20000904

08005394 <xPortSysTickHandler>:
 8005394:	b508      	push	{r3, lr}
 8005396:	f04f 0350 	mov.w	r3, #80	@ 0x50
 800539a:	f383 8811 	msr	BASEPRI, r3
 800539e:	f3bf 8f6f 	isb	sy
 80053a2:	f3bf 8f4f 	dsb	sy
 80053a6:	f7ff fdcb 	bl	8004f40 <xTaskIncrementTick>
 80053aa:	b128      	cbz	r0, 80053b8 <xPortSysTickHandler+0x24>
 80053ac:	f04f 23e0 	mov.w	r3, #3758153728	@ 0xe000e000
 80053b0:	f04f 5280 	mov.w	r2, #268435456	@ 0x10000000
 80053b4:	f8c3 2d04 	str.w	r2, [r3, #3332]	@ 0xd04
 80053b8:	2300      	movs	r3, #0
 80053ba:	f383 8811 	msr	BASEPRI, r3
 80053be:	bd08      	pop	{r3, pc}

080053c0 <vPortSetupTimerInterrupt>:
 80053c0:	f04f 22e0 	mov.w	r2, #3758153728	@ 0xe000e000
 80053c4:	2300      	movs	r3, #0
 80053c6:	f44f 717a 	mov.w	r1, #1000	@ 0x3e8
 80053ca:	6113      	str	r3, [r2, #16]
 80053cc:	6193      	str	r3, [r2, #24]
 80053ce:	4b04      	ldr	r3, [pc, #16]	@ (80053e0 <vPortSetupTimerInterrupt+0x20>)
 80053d0:	681b      	ldr	r3, [r3, #0]
 80053d2:	fbb3 f3f1 	udiv	r3, r3, r1
 80053d6:	3b01      	subs	r3, #1
 80053d8:	6153      	str	r3, [r2, #20]
 80053da:	2307      	movs	r3, #7
 80053dc:	6113      	str	r3, [r2, #16]
 80053de:	4770      	bx	lr
 80053e0:	2000000c 	.word	0x2000000c

080053e4 <xPortStartScheduler>:
 80053e4:	b513      	push	{r0, r1, r4, lr}
 80053e6:	4b27      	ldr	r3, [pc, #156]	@ (8005484 <xPortStartScheduler+0xa0>)
 80053e8:	781a      	ldrb	r2, [r3, #0]
 80053ea:	b2d2      	uxtb	r2, r2
 80053ec:	9201      	str	r2, [sp, #4]
 80053ee:	22ff      	movs	r2, #255	@ 0xff
 80053f0:	701a      	strb	r2, [r3, #0]
 80053f2:	781b      	ldrb	r3, [r3, #0]
 80053f4:	4a24      	ldr	r2, [pc, #144]	@ (8005488 <xPortStartScheduler+0xa4>)
 80053f6:	b2db      	uxtb	r3, r3
 80053f8:	f88d 3003 	strb.w	r3, [sp, #3]
 80053fc:	f89d 3003 	ldrb.w	r3, [sp, #3]
 8005400:	f003 0350 	and.w	r3, r3, #80	@ 0x50
 8005404:	7013      	strb	r3, [r2, #0]
 8005406:	2307      	movs	r3, #7
 8005408:	4a20      	ldr	r2, [pc, #128]	@ (800548c <xPortStartScheduler+0xa8>)
 800540a:	6013      	str	r3, [r2, #0]
 800540c:	f89d 1003 	ldrb.w	r1, [sp, #3]
 8005410:	6813      	ldr	r3, [r2, #0]
 8005412:	0609      	lsls	r1, r1, #24
 8005414:	d40a      	bmi.n	800542c <xPortStartScheduler+0x48>
 8005416:	2b03      	cmp	r3, #3
 8005418:	d011      	beq.n	800543e <xPortStartScheduler+0x5a>
 800541a:	f04f 0350 	mov.w	r3, #80	@ 0x50
 800541e:	f383 8811 	msr	BASEPRI, r3
 8005422:	f3bf 8f6f 	isb	sy
 8005426:	f3bf 8f4f 	dsb	sy
 800542a:	e7fe      	b.n	800542a <xPortStartScheduler+0x46>
 800542c:	3b01      	subs	r3, #1
 800542e:	6013      	str	r3, [r2, #0]
 8005430:	f89d 3003 	ldrb.w	r3, [sp, #3]
 8005434:	005b      	lsls	r3, r3, #1
 8005436:	b2db      	uxtb	r3, r3
 8005438:	f88d 3003 	strb.w	r3, [sp, #3]
 800543c:	e7e6      	b.n	800540c <xPortStartScheduler+0x28>
 800543e:	f44f 7340 	mov.w	r3, #768	@ 0x300
 8005442:	6013      	str	r3, [r2, #0]
 8005444:	9b01      	ldr	r3, [sp, #4]
 8005446:	4a0f      	ldr	r2, [pc, #60]	@ (8005484 <xPortStartScheduler+0xa0>)
 8005448:	b2db      	uxtb	r3, r3
 800544a:	7013      	strb	r3, [r2, #0]
 800544c:	f04f 23e0 	mov.w	r3, #3758153728	@ 0xe000e000
 8005450:	2400      	movs	r4, #0
 8005452:	f8d3 2d20 	ldr.w	r2, [r3, #3360]	@ 0xd20
 8005456:	f442 0270 	orr.w	r2, r2, #15728640	@ 0xf00000
 800545a:	f8c3 2d20 	str.w	r2, [r3, #3360]	@ 0xd20
 800545e:	f8d3 2d20 	ldr.w	r2, [r3, #3360]	@ 0xd20
 8005462:	f042 4270 	orr.w	r2, r2, #4026531840	@ 0xf0000000
 8005466:	f8c3 2d20 	str.w	r2, [r3, #3360]	@ 0xd20
 800546a:	f7ff ffa9 	bl	80053c0 <vPortSetupTimerInterrupt>
 800546e:	4b08      	ldr	r3, [pc, #32]	@ (8005490 <xPortStartScheduler+0xac>)
 8005470:	601c      	str	r4, [r3, #0]
 8005472:	f7ff fee3 	bl	800523c <prvPortStartFirstTask>
 8005476:	f7ff fe97 	bl	80051a8 <vTaskSwitchContext>
 800547a:	4620      	mov	r0, r4
 800547c:	f7ff feee 	bl	800525c <prvTaskExitError>
 8005480:	b002      	add	sp, #8
 8005482:	bd10      	pop	{r4, pc}
 8005484:	e000e400 	.word	0xe000e400
 8005488:	2000090c 	.word	0x2000090c
 800548c:	20000908 	.word	0x20000908
 8005490:	20000018 	.word	0x20000018

08005494 <prvInsertBlockIntoFreeList>:
 8005494:	b510      	push	{r4, lr}
 8005496:	4b10      	ldr	r3, [pc, #64]	@ (80054d8 <prvInsertBlockIntoFreeList+0x44>)
 8005498:	461a      	mov	r2, r3
 800549a:	681b      	ldr	r3, [r3, #0]
 800549c:	4283      	cmp	r3, r0
 800549e:	d3fb      	bcc.n	8005498 <prvInsertBlockIntoFreeList+0x4>
 80054a0:	6854      	ldr	r4, [r2, #4]
 80054a2:	1911      	adds	r1, r2, r4
 80054a4:	4288      	cmp	r0, r1
 80054a6:	bf01      	itttt	eq
 80054a8:	6841      	ldreq	r1, [r0, #4]
 80054aa:	4610      	moveq	r0, r2
 80054ac:	1909      	addeq	r1, r1, r4
 80054ae:	6051      	streq	r1, [r2, #4]
 80054b0:	6844      	ldr	r4, [r0, #4]
 80054b2:	1901      	adds	r1, r0, r4
 80054b4:	428b      	cmp	r3, r1
 80054b6:	d10c      	bne.n	80054d2 <prvInsertBlockIntoFreeList+0x3e>
 80054b8:	4908      	ldr	r1, [pc, #32]	@ (80054dc <prvInsertBlockIntoFreeList+0x48>)
 80054ba:	6809      	ldr	r1, [r1, #0]
 80054bc:	428b      	cmp	r3, r1
 80054be:	d003      	beq.n	80054c8 <prvInsertBlockIntoFreeList+0x34>
 80054c0:	6859      	ldr	r1, [r3, #4]
 80054c2:	4421      	add	r1, r4
 80054c4:	6041      	str	r1, [r0, #4]
 80054c6:	6819      	ldr	r1, [r3, #0]
 80054c8:	4290      	cmp	r0, r2
 80054ca:	6001      	str	r1, [r0, #0]
 80054cc:	bf18      	it	ne
 80054ce:	6010      	strne	r0, [r2, #0]
 80054d0:	bd10      	pop	{r4, pc}
 80054d2:	4619      	mov	r1, r3
 80054d4:	e7f8      	b.n	80054c8 <prvInsertBlockIntoFreeList+0x34>
 80054d6:	bf00      	nop
 80054d8:	20000928 	.word	0x20000928
 80054dc:	20000924 	.word	0x20000924

080054e0 <pvPortMalloc>:
 80054e0:	e92d 41f0 	stmdb	sp!, {r4, r5, r6, r7, r8, lr}
 80054e4:	4604      	mov	r4, r0
 80054e6:	f7ff fd23 	bl	8004f30 <vTaskSuspendAll>
 80054ea:	4942      	ldr	r1, [pc, #264]	@ (80055f4 <pvPortMalloc+0x114>)
 80054ec:	4d42      	ldr	r5, [pc, #264]	@ (80055f8 <pvPortMalloc+0x118>)
 80054ee:	680b      	ldr	r3, [r1, #0]
 80054f0:	bb0b      	cbnz	r3, 8005536 <pvPortMalloc+0x56>
 80054f2:	4a42      	ldr	r2, [pc, #264]	@ (80055fc <pvPortMalloc+0x11c>)
 80054f4:	0756      	lsls	r6, r2, #29
 80054f6:	bf1f      	itttt	ne
 80054f8:	1dd0      	addne	r0, r2, #7
 80054fa:	f020 0007 	bicne.w	r0, r0, #7
 80054fe:	f502 5220 	addne.w	r2, r2, #10240	@ 0x2800
 8005502:	1a13      	subne	r3, r2, r0
 8005504:	bf0c      	ite	eq
 8005506:	f44f 5320 	moveq.w	r3, #10240	@ 0x2800
 800550a:	4602      	movne	r2, r0
 800550c:	2000      	movs	r0, #0
 800550e:	4413      	add	r3, r2
 8005510:	4e3b      	ldr	r6, [pc, #236]	@ (8005600 <pvPortMalloc+0x120>)
 8005512:	3b08      	subs	r3, #8
 8005514:	f023 0307 	bic.w	r3, r3, #7
 8005518:	6070      	str	r0, [r6, #4]
 800551a:	6032      	str	r2, [r6, #0]
 800551c:	e9c3 0000 	strd	r0, r0, [r3]
 8005520:	1a98      	subs	r0, r3, r2
 8005522:	e9c2 3000 	strd	r3, r0, [r2]
 8005526:	600b      	str	r3, [r1, #0]
 8005528:	4b36      	ldr	r3, [pc, #216]	@ (8005604 <pvPortMalloc+0x124>)
 800552a:	6018      	str	r0, [r3, #0]
 800552c:	4b36      	ldr	r3, [pc, #216]	@ (8005608 <pvPortMalloc+0x128>)
 800552e:	6018      	str	r0, [r3, #0]
 8005530:	f04f 4300 	mov.w	r3, #2147483648	@ 0x80000000
 8005534:	602b      	str	r3, [r5, #0]
 8005536:	682e      	ldr	r6, [r5, #0]
 8005538:	4226      	tst	r6, r4
 800553a:	d155      	bne.n	80055e8 <pvPortMalloc+0x108>
 800553c:	2c00      	cmp	r4, #0
 800553e:	d046      	beq.n	80055ce <pvPortMalloc+0xee>
 8005540:	f104 0308 	add.w	r3, r4, #8
 8005544:	0760      	lsls	r0, r4, #29
 8005546:	bf1c      	itt	ne
 8005548:	f023 0307 	bicne.w	r3, r3, #7
 800554c:	3308      	addne	r3, #8
 800554e:	2b00      	cmp	r3, #0
 8005550:	d04a      	beq.n	80055e8 <pvPortMalloc+0x108>
 8005552:	4f2d      	ldr	r7, [pc, #180]	@ (8005608 <pvPortMalloc+0x128>)
 8005554:	683c      	ldr	r4, [r7, #0]
 8005556:	429c      	cmp	r4, r3
 8005558:	d346      	bcc.n	80055e8 <pvPortMalloc+0x108>
 800555a:	4a29      	ldr	r2, [pc, #164]	@ (8005600 <pvPortMalloc+0x120>)
 800555c:	6815      	ldr	r5, [r2, #0]
 800555e:	6868      	ldr	r0, [r5, #4]
 8005560:	4298      	cmp	r0, r3
 8005562:	d204      	bcs.n	800556e <pvPortMalloc+0x8e>
 8005564:	f8d5 c000 	ldr.w	ip, [r5]
 8005568:	f1bc 0f00 	cmp.w	ip, #0
 800556c:	d115      	bne.n	800559a <pvPortMalloc+0xba>
 800556e:	6809      	ldr	r1, [r1, #0]
 8005570:	42a9      	cmp	r1, r5
 8005572:	d039      	beq.n	80055e8 <pvPortMalloc+0x108>
 8005574:	6829      	ldr	r1, [r5, #0]
 8005576:	f8d2 8000 	ldr.w	r8, [r2]
 800557a:	6011      	str	r1, [r2, #0]
 800557c:	1ac2      	subs	r2, r0, r3
 800557e:	2a10      	cmp	r2, #16
 8005580:	d912      	bls.n	80055a8 <pvPortMalloc+0xc8>
 8005582:	18e8      	adds	r0, r5, r3
 8005584:	0741      	lsls	r1, r0, #29
 8005586:	d00b      	beq.n	80055a0 <pvPortMalloc+0xc0>
 8005588:	f04f 0350 	mov.w	r3, #80	@ 0x50
 800558c:	f383 8811 	msr	BASEPRI, r3
 8005590:	f3bf 8f6f 	isb	sy
 8005594:	f3bf 8f4f 	dsb	sy
 8005598:	e7fe      	b.n	8005598 <pvPortMalloc+0xb8>
 800559a:	462a      	mov	r2, r5
 800559c:	4665      	mov	r5, ip
 800559e:	e7de      	b.n	800555e <pvPortMalloc+0x7e>
 80055a0:	6042      	str	r2, [r0, #4]
 80055a2:	606b      	str	r3, [r5, #4]
 80055a4:	f7ff ff76 	bl	8005494 <prvInsertBlockIntoFreeList>
 80055a8:	2300      	movs	r3, #0
 80055aa:	686a      	ldr	r2, [r5, #4]
 80055ac:	4915      	ldr	r1, [pc, #84]	@ (8005604 <pvPortMalloc+0x124>)
 80055ae:	1aa4      	subs	r4, r4, r2
 80055b0:	4316      	orrs	r6, r2
 80055b2:	4a16      	ldr	r2, [pc, #88]	@ (800560c <pvPortMalloc+0x12c>)
 80055b4:	6808      	ldr	r0, [r1, #0]
 80055b6:	602b      	str	r3, [r5, #0]
 80055b8:	6813      	ldr	r3, [r2, #0]
 80055ba:	4284      	cmp	r4, r0
 80055bc:	f103 0301 	add.w	r3, r3, #1
 80055c0:	603c      	str	r4, [r7, #0]
 80055c2:	bf38      	it	cc
 80055c4:	600c      	strcc	r4, [r1, #0]
 80055c6:	606e      	str	r6, [r5, #4]
 80055c8:	f108 0408 	add.w	r4, r8, #8
 80055cc:	6013      	str	r3, [r2, #0]
 80055ce:	f7ff fd51 	bl	8005074 <xTaskResumeAll>
 80055d2:	0763      	lsls	r3, r4, #29
 80055d4:	d00a      	beq.n	80055ec <pvPortMalloc+0x10c>
 80055d6:	f04f 0350 	mov.w	r3, #80	@ 0x50
 80055da:	f383 8811 	msr	BASEPRI, r3
 80055de:	f3bf 8f6f 	isb	sy
 80055e2:	f3bf 8f4f 	dsb	sy
 80055e6:	e7fe      	b.n	80055e6 <pvPortMalloc+0x106>
 80055e8:	2400      	movs	r4, #0
 80055ea:	e7f0      	b.n	80055ce <pvPortMalloc+0xee>
 80055ec:	4620      	mov	r0, r4
 80055ee:	e8bd 81f0 	ldmia.w	sp!, {r4, r5, r6, r7, r8, pc}
 80055f2:	bf00      	nop
 80055f4:	20000924 	.word	0x20000924
 80055f8:	20000910 	.word	0x20000910
 80055fc:	20000930 	.word	0x20000930
 8005600:	20000928 	.word	0x20000928
 8005604:	2000091c 	.word	0x2000091c
 8005608:	20000920 	.word	0x20000920
 800560c:	20000918 	.word	0x20000918

08005610 <vPortFree>:
 8005610:	b510      	push	{r4, lr}
 8005612:	4604      	mov	r4, r0
 8005614:	b390      	cbz	r0, 800567c <vPortFree+0x6c>
 8005616:	4a1a      	ldr	r2, [pc, #104]	@ (8005680 <vPortFree+0x70>)
 8005618:	f850 3c04 	ldr.w	r3, [r0, #-4]
 800561c:	6812      	ldr	r2, [r2, #0]
 800561e:	4213      	tst	r3, r2
 8005620:	d108      	bne.n	8005634 <vPortFree+0x24>
 8005622:	f04f 0350 	mov.w	r3, #80	@ 0x50
 8005626:	f383 8811 	msr	BASEPRI, r3
 800562a:	f3bf 8f6f 	isb	sy
 800562e:	f3bf 8f4f 	dsb	sy
 8005632:	e7fe      	b.n	8005632 <vPortFree+0x22>
 8005634:	f850 1c08 	ldr.w	r1, [r0, #-8]
 8005638:	b141      	cbz	r1, 800564c <vPortFree+0x3c>
 800563a:	f04f 0350 	mov.w	r3, #80	@ 0x50
 800563e:	f383 8811 	msr	BASEPRI, r3
 8005642:	f3bf 8f6f 	isb	sy
 8005646:	f3bf 8f4f 	dsb	sy
 800564a:	e7fe      	b.n	800564a <vPortFree+0x3a>
 800564c:	ea23 0302 	bic.w	r3, r3, r2
 8005650:	f840 3c04 	str.w	r3, [r0, #-4]
 8005654:	f7ff fc6c 	bl	8004f30 <vTaskSuspendAll>
 8005658:	4a0a      	ldr	r2, [pc, #40]	@ (8005684 <vPortFree+0x74>)
 800565a:	f854 3c04 	ldr.w	r3, [r4, #-4]
 800565e:	6811      	ldr	r1, [r2, #0]
 8005660:	f1a4 0008 	sub.w	r0, r4, #8
 8005664:	440b      	add	r3, r1
 8005666:	6013      	str	r3, [r2, #0]
 8005668:	f7ff ff14 	bl	8005494 <prvInsertBlockIntoFreeList>
 800566c:	e8bd 4010 	ldmia.w	sp!, {r4, lr}
 8005670:	4a05      	ldr	r2, [pc, #20]	@ (8005688 <vPortFree+0x78>)
 8005672:	6813      	ldr	r3, [r2, #0]
 8005674:	3301      	adds	r3, #1
 8005676:	6013      	str	r3, [r2, #0]
 8005678:	f7ff bcfc 	b.w	8005074 <xTaskResumeAll>
 800567c:	bd10      	pop	{r4, pc}
 800567e:	bf00      	nop
 8005680:	20000910 	.word	0x20000910
 8005684:	20000920 	.word	0x20000920
 8005688:	20000914 	.word	0x20000914

0800568c <memset>:
 800568c:	4603      	mov	r3, r0
 800568e:	4402      	add	r2, r0
 8005690:	4293      	cmp	r3, r2
 8005692:	d100      	bne.n	8005696 <memset+0xa>
 8005694:	4770      	bx	lr
 8005696:	f803 1b01 	strb.w	r1, [r3], #1
 800569a:	e7f9      	b.n	8005690 <memset+0x4>

0800569c <__libc_init_array>:
 800569c:	b570      	push	{r4, r5, r6, lr}
 800569e:	2600      	movs	r6, #0
 80056a0:	4d0c      	ldr	r5, [pc, #48]	@ (80056d4 <__libc_init_array+0x38>)
 80056a2:	4c0d      	ldr	r4, [pc, #52]	@ (80056d8 <__libc_init_array+0x3c>)
 80056a4:	1b64      	subs	r4, r4, r5
 80056a6:	10a4      	asrs	r4, r4, #2
 80056a8:	42a6      	cmp	r6, r4
 80056aa:	d109      	bne.n	80056c0 <__libc_init_array+0x24>
 80056ac:	f000 f81a 	bl	80056e4 <_init>
 80056b0:	2600      	movs	r6, #0
 80056b2:	4d0a      	ldr	r5, [pc, #40]	@ (80056dc <__libc_init_array+0x40>)
 80056b4:	4c0a      	ldr	r4, [pc, #40]	@ (80056e0 <__libc_init_array+0x44>)
 80056b6:	1b64      	subs	r4, r4, r5
 80056b8:	10a4      	asrs	r4, r4, #2
 80056ba:	42a6      	cmp	r6, r4
 80056bc:	d105      	bne.n	80056ca <__libc_init_array+0x2e>
 80056be:	bd70      	pop	{r4, r5, r6, pc}
 80056c0:	f855 3b04 	ldr.w	r3, [r5], #4
 80056c4:	4798      	blx	r3
 80056c6:	3601      	adds	r6, #1
 80056c8:	e7ee      	b.n	80056a8 <__libc_init_array+0xc>
 80056ca:	f855 3b04 	ldr.w	r3, [r5], #4
 80056ce:	4798      	blx	r3
 80056d0:	3601      	adds	r6, #1
 80056d2:	e7f2      	b.n	80056ba <__libc_init_array+0x1e>
 80056d4:	080057c4 	.word	0x080057c4
 80056d8:	080057c4 	.word	0x080057c4
 80056dc:	080057c4 	.word	0x080057c4
 80056e0:	080057c8 	.word	0x080057c8

080056e4 <_init>:
 80056e4:	b5f8      	push	{r3, r4, r5, r6, r7, lr}
 80056e6:	bf00      	nop
 80056e8:	bcf8      	pop	{r3, r4, r5, r6, r7}
 80056ea:	bc08      	pop	{r3}
 80056ec:	469e      	mov	lr, r3
 80056ee:	4770      	bx	lr

080056f0 <_fini>:
 80056f0:	b5f8      	push	{r3, r4, r5, r6, r7, lr}
 80056f2:	bf00      	nop
 80056f4:	bcf8      	pop	{r3, r4, r5, r6, r7}
 80056f6:	bc08      	pop	{r3}
 80056f8:	469e      	mov	lr, r3
 80056fa:	4770      	bx	lr
